
dut_riscv.elf:     file format elf32-littleriscv


Disassembly of section .text.init:

80000000 <rvtest_entry_point>:
80000000:	feedc0b7          	lui	ra,0xfeedc
80000004:	ead08093          	add	ra,ra,-339 # feedbead <immx+0x441ce3dd>
80000008:	ff76e137          	lui	sp,0xff76e
8000000c:	f5610113          	add	sp,sp,-170 # ff76df56 <immx+0x44a60486>
80000010:	7fbb71b7          	lui	gp,0x7fbb7
80000014:	fab18193          	add	gp,gp,-85 # 7fbb6fab <absimm+0x3a8c4a7c>
80000018:	bfddb237          	lui	tp,0xbfddb
8000001c:	7d520213          	add	tp,tp,2005 # bfddb7d5 <immx+0x50cdd05>
80000020:	00000297          	auipc	t0,0x0
80000024:	08828293          	add	t0,t0,136 # 800000a8 <rvtest_code_begin>
80000028:	00000013          	nop
8000002c:	00000013          	nop
80000030:	00000013          	nop
80000034:	00000013          	nop
80000038:	00000013          	nop
8000003c:	00000013          	nop
80000040:	00002317          	auipc	t1,0x2
80000044:	fc030313          	add	t1,t1,-64 # 80002000 <rvtest_data_begin>
80000048:	00000013          	nop
8000004c:	00000013          	nop
80000050:	00000013          	nop
80000054:	00000013          	nop
80000058:	00000013          	nop
8000005c:	00000013          	nop
80000060:	b7fbb3b7          	lui	t2,0xb7fbb
80000064:	6fa38393          	add	t2,t2,1786 # b7fbb6fa <_end+0x37fb855a>
80000068:	5bfde437          	lui	s0,0x5bfde
8000006c:	b7d40413          	add	s0,s0,-1155 # 5bfddb7d <absimm+0x16ceb64e>
80000070:	adfef4b7          	lui	s1,0xadfef
80000074:	dbe48493          	add	s1,s1,-578 # adfeedbe <_end+0x2dfebc1e>
80000078:	56ff7537          	lui	a0,0x56ff7
8000007c:	6df50513          	add	a0,a0,1759 # 56ff76df <absimm+0x11d051b0>
80000080:	ab7fc5b7          	lui	a1,0xab7fc
80000084:	b6f58593          	add	a1,a1,-1169 # ab7fbb6f <_end+0x2b7f89cf>
80000088:	d5bfe637          	lui	a2,0xd5bfe
8000008c:	db760613          	add	a2,a2,-585 # d5bfddb7 <immx+0x1aef02e7>
80000090:	eadff6b7          	lui	a3,0xeadff
80000094:	edb68693          	add	a3,a3,-293 # eadfeedb <immx+0x300f140b>
80000098:	f56ff737          	lui	a4,0xf56ff
8000009c:	76d70713          	add	a4,a4,1901 # f56ff76d <immx+0x3a9f1c9d>
800000a0:	fab807b7          	lui	a5,0xfab80
800000a4:	bb678793          	add	a5,a5,-1098 # fab7fbb6 <immx+0x3fe720e6>

800000a8 <rvtest_code_begin>:
800000a8:	00000013          	nop
800000ac:	00000013          	nop
800000b0:	00000013          	nop
800000b4:	00000013          	nop
800000b8:	00000013          	nop
800000bc:	00000013          	nop
800000c0:	00003117          	auipc	sp,0x3
800000c4:	05410113          	add	sp,sp,84 # 80003114 <signature_x2_0>
800000c8:	00000013          	nop
800000cc:	00000013          	nop
800000d0:	00000013          	nop
800000d4:	00000013          	nop
800000d8:	00000013          	nop
800000dc:	00000013          	nop

800000e0 <inst_0>:
800000e0:	08000613          	li	a2,128
800000e4:	7629                	lui	a2,0xfffea
800000e6:	c032                	sw	a2,0(sp)

800000e8 <inst_1>:
800000e8:	02000a93          	li	s5,32
800000ec:	6ab1                	lui	s5,0xc
800000ee:	c256                	sw	s5,4(sp)

800000f0 <inst_2>:
800000f0:	5dbd                	li	s11,-17
800000f2:	7dfd                	lui	s11,0xfffff
800000f4:	c46e                	sw	s11,8(sp)

800000f6 <inst_3>:
800000f6:	5bf9                	li	s7,-2
800000f8:	6bbd                	lui	s7,0xf
800000fa:	c65e                	sw	s7,12(sp)

800000fc <inst_4>:
800000fc:	f80009b7          	lui	s3,0xf8000
80000100:	19fd                	add	s3,s3,-1 # f7ffffff <immx+0x3d2f252f>
80000102:	6985                	lui	s3,0x1
80000104:	c84e                	sw	s3,16(sp)

80000106 <inst_5>:
80000106:	7a41                	lui	s4,0xffff0
80000108:	1a7d                	add	s4,s4,-1 # fffeffff <immx+0x452e252f>
8000010a:	6a09                	lui	s4,0x2
8000010c:	ca52                	sw	s4,20(sp)

8000010e <inst_6>:
8000010e:	6405                	lui	s0,0x1
80000110:	6411                	lui	s0,0x4
80000112:	cc22                	sw	s0,24(sp)

80000114 <inst_7>:
80000114:	80000eb7          	lui	t4,0x80000
80000118:	1efd                	add	t4,t4,-1 # 7fffffff <absimm+0x3ad0dad0>
8000011a:	6ea1                	lui	t4,0x8
8000011c:	ce76                	sw	t4,28(sp)

8000011e <inst_8>:
8000011e:	5fed                	li	t6,-5
80000120:	6fc1                	lui	t6,0x10
80000122:	d07e                	sw	t6,32(sp)

80000124 <inst_9>:
80000124:	00400737          	lui	a4,0x400
80000128:	7701                	lui	a4,0xfffe0
8000012a:	d23a                	sw	a4,36(sp)

8000012c <inst_10>:
8000012c:	fe0001b7          	lui	gp,0xfe000
80000130:	11fd                	add	gp,gp,-1 # fdffffff <immx+0x432f252f>
80000132:	61d5                	lui	gp,0x15
80000134:	d40e                	sw	gp,40(sp)

80000136 <inst_11>:
80000136:	5265                	li	tp,-7
80000138:	7279                	lui	tp,0xffffe
8000013a:	d612                	sw	tp,44(sp)

8000013c <inst_12>:
8000013c:	6891                	lui	a7,0x4
8000013e:	78f5                	lui	a7,0xffffd
80000140:	d846                	sw	a7,48(sp)

80000142 <inst_13>:
80000142:	00040537          	lui	a0,0x40
80000146:	756d                	lui	a0,0xffffb
80000148:	da2a                	sw	a0,52(sp)

8000014a <inst_14>:
8000014a:	dff00393          	li	t2,-513
8000014e:	73dd                	lui	t2,0xffff7
80000150:	dc1e                	sw	t2,56(sp)

80000152 <inst_15>:
80000152:	4b15                	li	s6,5
80000154:	7b3d                	lui	s6,0xfffef
80000156:	de5a                	sw	s6,60(sp)

80000158 <inst_16>:
80000158:	02000293          	li	t0,32
8000015c:	62fd                	lui	t0,0x1f
8000015e:	c096                	sw	t0,64(sp)

80000160 <inst_17>:
80000160:	80000cb7          	lui	s9,0x80000
80000164:	6c85                	lui	s9,0x1
80000166:	c2e6                	sw	s9,68(sp)

80000168 <inst_18>:
80000168:	80000e37          	lui	t3,0x80000
8000016c:	6e05                	lui	t3,0x1
8000016e:	c4f2                	sw	t3,72(sp)

80000170 <inst_19>:
80000170:	80000037          	lui	zero,0x80000
80000174:	6005                	c.lui	zero,0x1
80000176:	c682                	sw	zero,76(sp)

80000178 <inst_20>:
80000178:	800005b7          	lui	a1,0x80000
8000017c:	6585                	lui	a1,0x1
8000017e:	c8ae                	sw	a1,80(sp)

80000180 <inst_21>:
80000180:	800000b7          	lui	ra,0x80000
80000184:	6085                	lui	ra,0x1
80000186:	ca86                	sw	ra,84(sp)

80000188 <inst_22>:
80000188:	80000937          	lui	s2,0x80000
8000018c:	6905                	lui	s2,0x1
8000018e:	ccca                	sw	s2,88(sp)

80000190 <inst_23>:
80000190:	800004b7          	lui	s1,0x80000
80000194:	6485                	lui	s1,0x1
80000196:	cea6                	sw	s1,92(sp)

80000198 <inst_24>:
80000198:	80000d37          	lui	s10,0x80000
8000019c:	6d05                	lui	s10,0x1
8000019e:	d0ea                	sw	s10,96(sp)

800001a0 <inst_25>:
800001a0:	80000f37          	lui	t5,0x80000
800001a4:	6f05                	lui	t5,0x1
800001a6:	d2fa                	sw	t5,100(sp)

800001a8 <inst_26>:
800001a8:	80000837          	lui	a6,0x80000
800001ac:	6805                	lui	a6,0x1
800001ae:	d4c2                	sw	a6,104(sp)

800001b0 <inst_27>:
800001b0:	80000337          	lui	t1,0x80000
800001b4:	6305                	lui	t1,0x1
800001b6:	d69a                	sw	t1,108(sp)

800001b8 <inst_28>:
800001b8:	800007b7          	lui	a5,0x80000
800001bc:	6785                	lui	a5,0x1
800001be:	d8be                	sw	a5,112(sp)
800001c0:	00003097          	auipc	ra,0x3
800001c4:	fc808093          	add	ra,ra,-56 # 80003188 <signature_x1_0>
800001c8:	00000013          	nop
800001cc:	00000013          	nop
800001d0:	00000013          	nop
800001d4:	00000013          	nop
800001d8:	00000013          	nop
800001dc:	00000013          	nop

800001e0 <inst_29>:
800001e0:	80000c37          	lui	s8,0x80000
800001e4:	6c05                	lui	s8,0x1
800001e6:	0180a023          	sw	s8,0(ra)

800001ea <inst_30>:
800001ea:	800006b7          	lui	a3,0x80000
800001ee:	6685                	lui	a3,0x1
800001f0:	00d0a223          	sw	a3,4(ra)

800001f4 <cleanup_epilogs>:
800001f4:	0200006f          	j	80000214 <exit_cleanup>

800001f8 <abort_tests>:
800001f8:	17812e83          	lw	t4,376(sp)
800001fc:	18012303          	lw	t1,384(sp)
80000200:	01d30333          	add	t1,t1,t4
80000204:	bad0e337          	lui	t1,0xbad0e
80000208:	ad030313          	add	t1,t1,-1328 # bad0dad0 <immx>
8000020c:	fe6eae23          	sw	t1,-4(t4) # 7ffc <offset+0x7ff4>
80000210:	0040006f          	j	80000214 <exit_cleanup>

80000214 <exit_cleanup>:
80000214:	4085                	li	ra,1

80000216 <write_tohost>:
80000216:	00001f17          	auipc	t5,0x1
8000021a:	de1f2523          	sw	ra,-534(t5) # 80001000 <tohost>
8000021e:	bfe5                	j	80000216 <write_tohost>
	...

Disassembly of section .tohost:

80001000 <tohost>:
	...

80001100 <fromhost>:
	...

Disassembly of section .data:

80002000 <rvtest_data_begin>:
80002000:	cafe                	sw	t6,84(sp)
80002002:	babe                	.2byte	0xbabe
80002004:	cafe                	sw	t6,84(sp)
80002006:	babe                	.2byte	0xbabe
80002008:	cafe                	sw	t6,84(sp)
8000200a:	babe                	.2byte	0xbabe
8000200c:	cafe                	sw	t6,84(sp)
8000200e:	babe                	.2byte	0xbabe

80002010 <mtrap_sigptr>:
80002010:	deadbeef          	jal	t4,7ffdd5fa <absimm+0x3aceb0cb>
80002014:	deadbeef          	jal	t4,7ffdd5fe <absimm+0x3aceb0cf>
	...

80003000 <begin_regstate>:
80003000:	0080                	add	s0,sp,64
	...

80003100 <end_regstate>:
80003100:	0004                	.2byte	0x4
	...

80003110 <begin_signature>:
80003110:	a309                	j	80003612 <_end+0x472>
80003112:	6f5c                	.2byte	0x6f5c

80003114 <signature_x2_0>:
80003114:	deadbeef          	jal	t4,7ffde6fe <absimm+0x3acec1cf>
80003118:	deadbeef          	jal	t4,7ffde702 <absimm+0x3acec1d3>
8000311c:	deadbeef          	jal	t4,7ffde706 <absimm+0x3acec1d7>
80003120:	deadbeef          	jal	t4,7ffde70a <absimm+0x3acec1db>
80003124:	deadbeef          	jal	t4,7ffde70e <absimm+0x3acec1df>
80003128:	deadbeef          	jal	t4,7ffde712 <absimm+0x3acec1e3>
8000312c:	deadbeef          	jal	t4,7ffde716 <absimm+0x3acec1e7>
80003130:	deadbeef          	jal	t4,7ffde71a <absimm+0x3acec1eb>
80003134:	deadbeef          	jal	t4,7ffde71e <absimm+0x3acec1ef>
80003138:	deadbeef          	jal	t4,7ffde722 <absimm+0x3acec1f3>
8000313c:	deadbeef          	jal	t4,7ffde726 <absimm+0x3acec1f7>
80003140:	deadbeef          	jal	t4,7ffde72a <absimm+0x3acec1fb>
80003144:	deadbeef          	jal	t4,7ffde72e <absimm+0x3acec1ff>
80003148:	deadbeef          	jal	t4,7ffde732 <absimm+0x3acec203>
8000314c:	deadbeef          	jal	t4,7ffde736 <absimm+0x3acec207>
80003150:	deadbeef          	jal	t4,7ffde73a <absimm+0x3acec20b>
80003154:	deadbeef          	jal	t4,7ffde73e <absimm+0x3acec20f>
80003158:	deadbeef          	jal	t4,7ffde742 <absimm+0x3acec213>
8000315c:	deadbeef          	jal	t4,7ffde746 <absimm+0x3acec217>
80003160:	deadbeef          	jal	t4,7ffde74a <absimm+0x3acec21b>
80003164:	deadbeef          	jal	t4,7ffde74e <absimm+0x3acec21f>
80003168:	deadbeef          	jal	t4,7ffde752 <absimm+0x3acec223>
8000316c:	deadbeef          	jal	t4,7ffde756 <absimm+0x3acec227>
80003170:	deadbeef          	jal	t4,7ffde75a <absimm+0x3acec22b>
80003174:	deadbeef          	jal	t4,7ffde75e <absimm+0x3acec22f>
80003178:	deadbeef          	jal	t4,7ffde762 <absimm+0x3acec233>
8000317c:	deadbeef          	jal	t4,7ffde766 <absimm+0x3acec237>
80003180:	deadbeef          	jal	t4,7ffde76a <absimm+0x3acec23b>
80003184:	deadbeef          	jal	t4,7ffde76e <absimm+0x3acec23f>

80003188 <signature_x1_0>:
80003188:	deadbeef          	jal	t4,7ffde772 <absimm+0x3acec243>
8000318c:	deadbeef          	jal	t4,7ffde776 <absimm+0x3acec247>

80003190 <sig_end_canary>:
80003190:	a309                	j	80003692 <_end+0x4f2>
80003192:	6f5c                	.2byte	0x6f5c

80003194 <rvtest_sig_end>:
	...

Disassembly of section .riscv.attributes:

00000000 <.riscv.attributes>:
   0:	1e41                	add	t3,t3,-16 # ff0 <offset+0xfe8>
   2:	0000                	unimp
   4:	7200                	.2byte	0x7200
   6:	7369                	lui	t1,0xffffa
   8:	01007663          	bgeu	zero,a6,14 <offset+0xc>
   c:	0014                	.2byte	0x14
   e:	0000                	unimp
  10:	7205                	lui	tp,0xfffe1
  12:	3376                	.2byte	0x3376
  14:	6932                	.2byte	0x6932
  16:	7032                	.2byte	0x7032
  18:	5f31                	li	t5,-20
  1a:	30703263          	.4byte	0x30703263
	...

Disassembly of section .debug_line:

00000000 <.debug_line>:
   0:	0118                	add	a4,sp,128
   2:	0000                	unimp
   4:	0005                	c.nop	1
   6:	0004                	.2byte	0x4
   8:	002e                	c.slli	zero,0xb
   a:	0000                	unimp
   c:	0101                	add	sp,sp,0
   e:	fb01                	bnez	a4,ffffff1e <imm12+0x44e>
  10:	0d0e                	sll	s10,s10,0x3
  12:	0100                	add	s0,sp,128
  14:	0101                	add	sp,sp,0
  16:	0001                	nop
  18:	0000                	unimp
  1a:	0001                	nop
  1c:	0100                	add	s0,sp,128
  1e:	0101                	add	sp,sp,0
  20:	021f 0000 0000      	.byte	0x1f, 0x02, 0x00, 0x00, 0x00, 0x00
  26:	0000005b          	.4byte	0x5b
  2a:	0102                	c.slli64	sp
  2c:	021f 020f 00c0      	.byte	0x1f, 0x02, 0x0f, 0x02, 0xc0, 0x00
  32:	0000                	unimp
  34:	c001                	beqz	s0,34 <offset+0x2c>
  36:	0000                	unimp
  38:	0100                	add	s0,sp,128
  3a:	0500                	add	s0,sp,640
  3c:	0002                	c.slli64	zero
  3e:	0000                	unimp
  40:	0380                	add	s0,sp,448
  42:	0119                	add	sp,sp,6
  44:	c0090603          	lb	a2,-1024(s2) # c00 <offset+0xbf8>
  48:	0100                	add	s0,sp,128
  4a:	20090503          	lb	a0,512(s2)
  4e:	0100                	add	s0,sp,128
  50:	08090503          	lb	a0,128(s2)
  54:	0100                	add	s0,sp,128
  56:	08090503          	lb	a0,128(s2)
  5a:	0100                	add	s0,sp,128
  5c:	06090503          	lb	a0,96(s2)
  60:	0100                	add	s0,sp,128
  62:	06090503          	lb	a0,96(s2)
  66:	0100                	add	s0,sp,128
  68:	0a090503          	lb	a0,160(s2)
  6c:	0100                	add	s0,sp,128
  6e:	08090503          	lb	a0,128(s2)
  72:	0100                	add	s0,sp,128
  74:	06090503          	lb	a0,96(s2)
  78:	0100                	add	s0,sp,128
  7a:	0a090503          	lb	a0,160(s2)
  7e:	0100                	add	s0,sp,128
  80:	06090503          	lb	a0,96(s2)
  84:	0100                	add	s0,sp,128
  86:	08090503          	lb	a0,128(s2)
  8a:	0100                	add	s0,sp,128
  8c:	0a090503          	lb	a0,160(s2)
  90:	0100                	add	s0,sp,128
  92:	06090503          	lb	a0,96(s2)
  96:	0100                	add	s0,sp,128
  98:	06090503          	lb	a0,96(s2)
  9c:	0100                	add	s0,sp,128
  9e:	08090503          	lb	a0,128(s2)
  a2:	0100                	add	s0,sp,128
  a4:	08090503          	lb	a0,128(s2)
  a8:	0100                	add	s0,sp,128
  aa:	06090503          	lb	a0,96(s2)
  ae:	0100                	add	s0,sp,128
  b0:	08090503          	lb	a0,128(s2)
  b4:	0100                	add	s0,sp,128
  b6:	08090503          	lb	a0,128(s2)
  ba:	0100                	add	s0,sp,128
  bc:	08090503          	lb	a0,128(s2)
  c0:	0100                	add	s0,sp,128
  c2:	08090503          	lb	a0,128(s2)
  c6:	0100                	add	s0,sp,128
  c8:	08090503          	lb	a0,128(s2)
  cc:	0100                	add	s0,sp,128
  ce:	08090503          	lb	a0,128(s2)
  d2:	0100                	add	s0,sp,128
  d4:	08090503          	lb	a0,128(s2)
  d8:	0100                	add	s0,sp,128
  da:	08090503          	lb	a0,128(s2)
  de:	0100                	add	s0,sp,128
  e0:	08090503          	lb	a0,128(s2)
  e4:	0100                	add	s0,sp,128
  e6:	08090503          	lb	a0,128(s2)
  ea:	0100                	add	s0,sp,128
  ec:	08090503          	lb	a0,128(s2)
  f0:	0100                	add	s0,sp,128
  f2:	08090503          	lb	a0,128(s2)
  f6:	0100                	add	s0,sp,128
  f8:	08090103          	lb	sp,128(s2)
  fc:	0100                	add	s0,sp,128
  fe:	20090503          	lb	a0,512(s2)
 102:	0100                	add	s0,sp,128
 104:	0a090503          	lb	a0,160(s2)
 108:	0100                	add	s0,sp,128
 10a:	0a090403          	lb	s0,160(s2)
 10e:	0100                	add	s0,sp,128
 110:	20090103          	lb	sp,512(s2)
 114:	0100                	add	s0,sp,128
 116:	0c09                	add	s8,s8,2 # 1002 <offset+0xffa>
 118:	0000                	unimp
 11a:	0101                	add	sp,sp,0

Disassembly of section .debug_line_str:

00000000 <.debug_line_str>:
   0:	6d6f682f          	.4byte	0x6d6f682f
   4:	2f65                	jal	7bc <offset+0x7b4>
   6:	6f66                	.2byte	0x6f66
   8:	6372                	.2byte	0x6372
   a:	2f65                	jal	7c2 <offset+0x7ba>
   c:	6544                	.2byte	0x6544
   e:	6f746b73          	.4byte	0x6f746b73
  12:	2f70                	.2byte	0x2f70
  14:	6b726f77          	.4byte	0x6b726f77
  18:	6d6f632f          	.4byte	0x6d6f632f
  1c:	6c70                	.2byte	0x6c70
  1e:	6169                	add	sp,sp,208
  20:	636e                	.2byte	0x636e
  22:	5f65                	li	t5,-7
  24:	6574                	.2byte	0x6574
  26:	6e697473          	.4byte	0x6e697473
  2a:	756f2f67          	.4byte	0x756f2f67
  2e:	5f72                	lw	t5,60(sp)
  30:	6972                	.2byte	0x6972
  32:	2f766373          	.4byte	0x2f766373
  36:	6b726f77          	.4byte	0x6b726f77
  3a:	7369722f          	.4byte	0x7369722f
  3e:	5f666f63          	bltu	a2,s6,63c <offset+0x634>
  42:	6b726f77          	.4byte	0x6b726f77
  46:	732f432f          	.4byte	0x732f432f
  4a:	6372                	.2byte	0x6372
  4c:	756c632f          	.4byte	0x756c632f
  50:	2d69                	jal	6ea <offset+0x6e2>
  52:	3130                	.2byte	0x3130
  54:	532e                	lw	t1,232(sp)
  56:	7475642f          	.4byte	0x7475642f
  5a:	2f00                	.2byte	0x2f00
  5c:	6f68                	.2byte	0x6f68
  5e:	656d                	lui	a0,0x1b
  60:	726f662f          	.4byte	0x726f662f
  64:	442f6563          	bltu	t5,sp,4ae <offset+0x4a6>
  68:	7365                	lui	t1,0xffff9
  6a:	706f746b          	.4byte	0x706f746b
  6e:	726f772f          	.4byte	0x726f772f
  72:	6f632f6b          	.4byte	0x6f632f6b
  76:	706d                	c.lui	zero,0xffffb
  78:	696c                	.2byte	0x696c
  7a:	6e61                	lui	t3,0x18
  7c:	745f6563          	bltu	t5,t0,7c6 <offset+0x7be>
  80:	7365                	lui	t1,0xffff9
  82:	6974                	.2byte	0x6974
  84:	676e                	.2byte	0x676e
  86:	72756f2f          	.4byte	0x72756f2f
  8a:	725f 7369 7663      	.byte	0x5f, 0x72, 0x69, 0x73, 0x63, 0x76
  90:	7369722f          	.4byte	0x7369722f
  94:	612d7663          	bgeu	s10,s2,6a0 <offset+0x698>
  98:	6372                	.2byte	0x6372
  9a:	2d68                	.2byte	0x2d68
  9c:	6574                	.2byte	0x6574
  9e:	722f7473          	.4byte	0x722f7473
  a2:	7369                	lui	t1,0xffffa
  a4:	742d7663          	bgeu	s10,sp,7f0 <offset+0x7e8>
  a8:	7365                	lui	t1,0xffff9
  aa:	2d74                	.2byte	0x2d74
  ac:	74697573          	.4byte	0x74697573
  b0:	2f65                	jal	868 <offset+0x860>
  b2:	7672                	.2byte	0x7672
  b4:	5f693233          	.4byte	0x5f693233
  b8:	2f6d                	jal	872 <offset+0x86a>
  ba:	72732f43          	.4byte	0x72732f43
  be:	6c630063          	beq	t1,t1,77e <offset+0x776>
  c2:	6975                	lui	s2,0x1d
  c4:	302d                	jal	fffff8ee <imm12+0xfffffe1e>
  c6:	2e31                	jal	3e2 <offset+0x3da>
  c8:	53 00             	Address 0xc8 is out of bounds.


Disassembly of section .debug_info:

00000000 <.debug_info>:
   0:	0021                	c.nop	8
   2:	0000                	unimp
   4:	0005                	c.nop	1
   6:	0401                	add	s0,s0,0 # 4000 <offset+0x3ff8>
   8:	0000                	unimp
   a:	0000                	unimp
   c:	0001                	nop
   e:	0000                	unimp
  10:	0000                	unimp
  12:	0000                	unimp
  14:	ae80                	.2byte	0xae80
  16:	0005                	c.nop	1
  18:	0000                	unimp
  1a:	6f00                	.2byte	0x6f00
  1c:	0000                	unimp
  1e:	ca00                	sw	s0,16(a2)
  20:	0000                	unimp
  22:	0100                	add	s0,sp,128
  24:	80              	Address 0x24 is out of bounds.


Disassembly of section .debug_abbrev:

00000000 <.debug_abbrev>:
   0:	1101                	add	sp,sp,-32
   2:	1000                	add	s0,sp,32
   4:	12011117          	auipc	sp,0x12011
   8:	1b0e030f          	.4byte	0x1b0e030f
   c:	250e                	.2byte	0x250e
   e:	130e                	sll	t1,t1,0x23
  10:	0005                	c.nop	1
	...

Disassembly of section .debug_aranges:

00000000 <.debug_aranges>:
   0:	001c                	.2byte	0x1c
   2:	0000                	unimp
   4:	0002                	c.slli64	zero
   6:	0000                	unimp
   8:	0000                	unimp
   a:	0004                	.2byte	0x4
   c:	0000                	unimp
   e:	0000                	unimp
  10:	0000                	unimp
  12:	8000                	.2byte	0x8000
  14:	0220                	add	s0,sp,264
	...

Disassembly of section .debug_str:

00000000 <.debug_str>:
   0:	6d6f682f          	.4byte	0x6d6f682f
   4:	2f65                	jal	7bc <offset+0x7b4>
   6:	6f66                	.2byte	0x6f66
   8:	6372                	.2byte	0x6372
   a:	2f65                	jal	7c2 <offset+0x7ba>
   c:	6544                	.2byte	0x6544
   e:	6f746b73          	.4byte	0x6f746b73
  12:	2f70                	.2byte	0x2f70
  14:	6b726f77          	.4byte	0x6b726f77
  18:	6d6f632f          	.4byte	0x6d6f632f
  1c:	6c70                	.2byte	0x6c70
  1e:	6169                	add	sp,sp,208
  20:	636e                	.2byte	0x636e
  22:	5f65                	li	t5,-7
  24:	6574                	.2byte	0x6574
  26:	6e697473          	.4byte	0x6e697473
  2a:	756f2f67          	.4byte	0x756f2f67
  2e:	5f72                	lw	t5,60(sp)
  30:	6972                	.2byte	0x6972
  32:	2f766373          	.4byte	0x2f766373
  36:	6972                	.2byte	0x6972
  38:	2d766373          	.4byte	0x2d766373
  3c:	7261                	lui	tp,0xffff8
  3e:	742d6863          	bltu	s10,sp,78e <offset+0x786>
  42:	7365                	lui	t1,0xffff9
  44:	2f74                	.2byte	0x2f74
  46:	6972                	.2byte	0x6972
  48:	2d766373          	.4byte	0x2d766373
  4c:	6574                	.2byte	0x6574
  4e:	732d7473          	.4byte	0x732d7473
  52:	6975                	lui	s2,0x1d
  54:	6574                	.2byte	0x6574
  56:	3376722f          	.4byte	0x3376722f
  5a:	6932                	.2byte	0x6932
  5c:	6d5f 432f 732f      	.byte	0x5f, 0x6d, 0x2f, 0x43, 0x2f, 0x73
  62:	6372                	.2byte	0x6372
  64:	756c632f          	.4byte	0x756c632f
  68:	2d69                	jal	702 <offset+0x6fa>
  6a:	3130                	.2byte	0x3130
  6c:	532e                	lw	t1,232(sp)
  6e:	2f00                	.2byte	0x2f00
  70:	6f68                	.2byte	0x6f68
  72:	656d                	lui	a0,0x1b
  74:	726f662f          	.4byte	0x726f662f
  78:	442f6563          	bltu	t5,sp,4c2 <offset+0x4ba>
  7c:	7365                	lui	t1,0xffff9
  7e:	706f746b          	.4byte	0x706f746b
  82:	726f772f          	.4byte	0x726f772f
  86:	6f632f6b          	.4byte	0x6f632f6b
  8a:	706d                	c.lui	zero,0xffffb
  8c:	696c                	.2byte	0x696c
  8e:	6e61                	lui	t3,0x18
  90:	745f6563          	bltu	t5,t0,7da <offset+0x7d2>
  94:	7365                	lui	t1,0xffff9
  96:	6974                	.2byte	0x6974
  98:	676e                	.2byte	0x676e
  9a:	72756f2f          	.4byte	0x72756f2f
  9e:	725f 7369 7663      	.byte	0x5f, 0x72, 0x69, 0x73, 0x63, 0x76
  a4:	726f772f          	.4byte	0x726f772f
  a8:	69722f6b          	.4byte	0x69722f6b
  ac:	666f6373          	.4byte	0x666f6373
  b0:	775f 726f 2f6b      	.byte	0x5f, 0x77, 0x6f, 0x72, 0x6b, 0x2f
  b6:	72732f43          	.4byte	0x72732f43
  ba:	6c632f63          	.4byte	0x6c632f63
  be:	6975                	lui	s2,0x1d
  c0:	302d                	jal	fffff8ea <imm12+0xfffffe1a>
  c2:	2e31                	jal	3de <offset+0x3d6>
  c4:	75642f53          	.4byte	0x75642f53
  c8:	0074                	add	a3,sp,12
  ca:	20554e47          	.4byte	0x20554e47
  ce:	5341                	li	t1,-16
  d0:	3220                	.2byte	0x3220
  d2:	342e                	.2byte	0x342e
  d4:	2e30                	.2byte	0x2e30
  d6:	0030                	add	a2,sp,8
