
dut_riscv.elf:     file format elf32-littleriscv


Disassembly of section .text.init:

80000000 <rvtest_entry_point>:
80000000:	feedc0b7          	lui	ra,0xfeedc
80000004:	ead08093          	add	ra,ra,-339 # feedbead <immx+0x441ce3dd>
80000008:	ff76e137          	lui	sp,0xff76e
8000000c:	f5610113          	add	sp,sp,-170 # ff76df56 <immx+0x44a60486>
80000010:	7fbb71b7          	lui	gp,0x7fbb7
80000014:	fab18193          	add	gp,gp,-85 # 7fbb6fab <absimm+0x3a8c4a7c>
80000018:	bfddb237          	lui	tp,0xbfddb
8000001c:	7d520213          	add	tp,tp,2005 # bfddb7d5 <immx+0x50cdd05>
80000020:	00000297          	auipc	t0,0x0
80000024:	08828293          	add	t0,t0,136 # 800000a8 <rvtest_code_begin>
80000028:	00000013          	nop
8000002c:	00000013          	nop
80000030:	00000013          	nop
80000034:	00000013          	nop
80000038:	00000013          	nop
8000003c:	00000013          	nop
80000040:	00004317          	auipc	t1,0x4
80000044:	fc030313          	add	t1,t1,-64 # 80004000 <rvtest_data_begin>
80000048:	00000013          	nop
8000004c:	00000013          	nop
80000050:	00000013          	nop
80000054:	00000013          	nop
80000058:	00000013          	nop
8000005c:	00000013          	nop
80000060:	b7fbb3b7          	lui	t2,0xb7fbb
80000064:	6fa38393          	add	t2,t2,1786 # b7fbb6fa <_end+0x37fb5cba>
80000068:	5bfde437          	lui	s0,0x5bfde
8000006c:	b7d40413          	add	s0,s0,-1155 # 5bfddb7d <absimm+0x16ceb64e>
80000070:	adfef4b7          	lui	s1,0xadfef
80000074:	dbe48493          	add	s1,s1,-578 # adfeedbe <_end+0x2dfe937e>
80000078:	56ff7537          	lui	a0,0x56ff7
8000007c:	6df50513          	add	a0,a0,1759 # 56ff76df <absimm+0x11d051b0>
80000080:	ab7fc5b7          	lui	a1,0xab7fc
80000084:	b6f58593          	add	a1,a1,-1169 # ab7fbb6f <_end+0x2b7f612f>
80000088:	d5bfe637          	lui	a2,0xd5bfe
8000008c:	db760613          	add	a2,a2,-585 # d5bfddb7 <immx+0x1aef02e7>
80000090:	eadff6b7          	lui	a3,0xeadff
80000094:	edb68693          	add	a3,a3,-293 # eadfeedb <immx+0x300f140b>
80000098:	f56ff737          	lui	a4,0xf56ff
8000009c:	76d70713          	add	a4,a4,1901 # f56ff76d <immx+0x3a9f1c9d>
800000a0:	fab807b7          	lui	a5,0xfab80
800000a4:	bb678793          	add	a5,a5,-1098 # fab7fbb6 <immx+0x3fe720e6>

800000a8 <rvtest_code_begin>:
800000a8:	00000013          	nop
800000ac:	00000013          	nop
800000b0:	00000013          	nop
800000b4:	00000013          	nop
800000b8:	00000013          	nop
800000bc:	00000013          	nop
800000c0:	00005417          	auipc	s0,0x5
800000c4:	05440413          	add	s0,s0,84 # 80005114 <signature_x8_0>
800000c8:	00000013          	nop
800000cc:	00000013          	nop
800000d0:	00000013          	nop
800000d4:	00000013          	nop
800000d8:	00000013          	nop
800000dc:	00000013          	nop

800000e0 <inst_0>:
800000e0:	80000e37          	lui	t3,0x80000
800000e4:	4b81                	li	s7,0
800000e6:	9bf2                	add	s7,s7,t3
800000e8:	01742023          	sw	s7,0(s0)

800000ec <inst_1>:
800000ec:	61c1                	lui	gp,0x10
800000ee:	61c1                	lui	gp,0x10
800000f0:	918e                	add	gp,gp,gp
800000f2:	00342223          	sw	gp,4(s0)

800000f6 <inst_2>:
800000f6:	80000f37          	lui	t5,0x80000
800000fa:	1f7d                	add	t5,t5,-1 # 7fffffff <absimm+0x3ad0dad0>
800000fc:	4781                	li	a5,0
800000fe:	97fa                	add	a5,a5,t5
80000100:	c41c                	sw	a5,8(s0)

80000102 <inst_3>:
80000102:	4285                	li	t0,1
80000104:	f7f00b13          	li	s6,-129
80000108:	9b16                	add	s6,s6,t0
8000010a:	01642623          	sw	s6,12(s0)

8000010e <inst_4>:
8000010e:	400006b7          	lui	a3,0x40000
80000112:	16fd                	add	a3,a3,-1 # 3fffffff <offset+0x3fffff37>
80000114:	800003b7          	lui	t2,0x80000
80000118:	93b6                	add	t2,t2,a3
8000011a:	00742823          	sw	t2,16(s0)

8000011e <inst_5>:
8000011e:	ffff5137          	lui	sp,0xffff5
80000122:	afd10113          	add	sp,sp,-1283 # ffff4afd <immx+0x452e702d>
80000126:	00000013          	nop
8000012a:	900a                	c.add	zero,sp
8000012c:	00042a23          	sw	zero,20(s0)

80000130 <inst_6>:
80000130:	ffe000b7          	lui	ra,0xffe00
80000134:	10fd                	add	ra,ra,-1 # ffdfffff <immx+0x450f252f>
80000136:	4a05                	li	s4,1
80000138:	9a06                	add	s4,s4,ra
8000013a:	01442c23          	sw	s4,24(s0)

8000013e <inst_7>:
8000013e:	4309                	li	t1,2
80000140:	40000db7          	lui	s11,0x40000
80000144:	1dfd                	add	s11,s11,-1 # 3fffffff <offset+0x3fffff37>
80000146:	9d9a                	add	s11,s11,t1
80000148:	01b42e23          	sw	s11,28(s0)

8000014c <inst_8>:
8000014c:	4b11                	li	s6,4
8000014e:	33333137          	lui	sp,0x33333
80000152:	33310113          	add	sp,sp,819 # 33333333 <offset+0x3333326b>
80000156:	915a                	add	sp,sp,s6
80000158:	02242023          	sw	sp,32(s0)

8000015c <inst_9>:
8000015c:	4da1                	li	s11,8
8000015e:	5669                	li	a2,-6
80000160:	966e                	add	a2,a2,s11
80000162:	d050                	sw	a2,36(s0)

80000164 <inst_10>:
80000164:	4cc1                	li	s9,16
80000166:	56f9                	li	a3,-2
80000168:	96e6                	add	a3,a3,s9
8000016a:	d414                	sw	a3,40(s0)

8000016c <inst_11>:
8000016c:	02000513          	li	a0,32
80000170:	000805b7          	lui	a1,0x80
80000174:	95aa                	add	a1,a1,a0
80000176:	d44c                	sw	a1,44(s0)

80000178 <inst_12>:
80000178:	04000793          	li	a5,64
8000017c:	02000837          	lui	a6,0x2000
80000180:	983e                	add	a6,a6,a5
80000182:	03042823          	sw	a6,48(s0)

80000186 <inst_13>:
80000186:	08000813          	li	a6,128
8000018a:	04000cb7          	lui	s9,0x4000
8000018e:	9cc2                	add	s9,s9,a6
80000190:	03942a23          	sw	s9,52(s0)

80000194 <inst_14>:
80000194:	10000993          	li	s3,256
80000198:	ff800937          	lui	s2,0xff800
8000019c:	197d                	add	s2,s2,-1 # ff7fffff <immx+0x44af252f>
8000019e:	994e                	add	s2,s2,s3
800001a0:	03242c23          	sw	s2,56(s0)

800001a4 <inst_15>:
800001a4:	20000613          	li	a2,512
800001a8:	00200337          	lui	t1,0x200
800001ac:	9332                	add	t1,t1,a2
800001ae:	02642e23          	sw	t1,60(s0)

800001b2 <inst_16>:
800001b2:	40000a13          	li	s4,1024
800001b6:	00040eb7          	lui	t4,0x40
800001ba:	9ed2                	add	t4,t4,s4
800001bc:	05d42023          	sw	t4,64(s0)

800001c0 <inst_17>:
800001c0:	6e85                	lui	t4,0x1
800001c2:	800e8e93          	add	t4,t4,-2048 # 800 <offset+0x738>
800001c6:	6d41                	lui	s10,0x10
800001c8:	9d76                	add	s10,s10,t4
800001ca:	05a42223          	sw	s10,68(s0)

800001ce <inst_18>:
800001ce:	6905                	lui	s2,0x1
800001d0:	78c1                	lui	a7,0xffff0
800001d2:	18fd                	add	a7,a7,-1 # fffeffff <immx+0x452e252f>
800001d4:	98ca                	add	a7,a7,s2
800001d6:	05142423          	sw	a7,72(s0)

800001da <inst_19>:
800001da:	6489                	lui	s1,0x2
800001dc:	5779                	li	a4,-2
800001de:	9726                	add	a4,a4,s1
800001e0:	c478                	sw	a4,76(s0)

800001e2 <inst_20>:
800001e2:	6711                	lui	a4,0x4
800001e4:	4081                	li	ra,0
800001e6:	90ba                	add	ra,ra,a4
800001e8:	04142823          	sw	ra,80(s0)

800001ec <inst_21>:
800001ec:	6ba1                	lui	s7,0x8
800001ee:	40000fb7          	lui	t6,0x40000
800001f2:	1ffd                	add	t6,t6,-1 # 3fffffff <offset+0x3fffff37>
800001f4:	9fde                	add	t6,t6,s7
800001f6:	05f42a23          	sw	t6,84(s0)

800001fa <inst_22>:
800001fa:	6d41                	lui	s10,0x10
800001fc:	ffe00237          	lui	tp,0xffe00
80000200:	127d                	add	tp,tp,-1 # ffdfffff <immx+0x450f252f>
80000202:	926a                	add	tp,tp,s10
80000204:	04442c23          	sw	tp,88(s0)
80000208:	00000013          	nop
8000020c:	00000013          	nop
80000210:	00000013          	nop
80000214:	00000013          	nop
80000218:	00000013          	nop
8000021c:	00000013          	nop
80000220:	00005097          	auipc	ra,0x5
80000224:	f5008093          	add	ra,ra,-176 # 80005170 <signature_x1_0>
80000228:	00000013          	nop
8000022c:	00000013          	nop
80000230:	00000013          	nop
80000234:	00000013          	nop
80000238:	00000013          	nop
8000023c:	00000013          	nop

80000240 <inst_23>:
80000240:	00020fb7          	lui	t6,0x20
80000244:	66666c37          	lui	s8,0x66666
80000248:	667c0c13          	add	s8,s8,1639 # 66666667 <absimm+0x21374138>
8000024c:	9c7e                	add	s8,s8,t6
8000024e:	0180a023          	sw	s8,0(ra)

80000252 <inst_24>:
80000252:	000405b7          	lui	a1,0x40
80000256:	040002b7          	lui	t0,0x4000
8000025a:	92ae                	add	t0,t0,a1
8000025c:	0050a223          	sw	t0,4(ra)

80000260 <inst_25>:
80000260:	000808b7          	lui	a7,0x80
80000264:	5e3d                	li	t3,-17
80000266:	9e46                	add	t3,t3,a7
80000268:	01c0a423          	sw	t3,8(ra)

8000026c <inst_26>:
8000026c:	00100237          	lui	tp,0x100
80000270:	fbf00993          	li	s3,-65
80000274:	9992                	add	s3,s3,tp
80000276:	0130a623          	sw	s3,12(ra)

8000027a <inst_27>:
8000027a:	00200c37          	lui	s8,0x200
8000027e:	54d9                	li	s1,-10
80000280:	94e2                	add	s1,s1,s8
80000282:	0090a823          	sw	s1,16(ra)

80000286 <inst_28>:
80000286:	00400ab7          	lui	s5,0x400
8000028a:	33333437          	lui	s0,0x33333
8000028e:	33240413          	add	s0,s0,818 # 33333332 <offset+0x3333326a>
80000292:	9456                	add	s0,s0,s5
80000294:	0080aa23          	sw	s0,20(ra)

80000298 <inst_29>:
80000298:	008003b7          	lui	t2,0x800
8000029c:	aaaabf37          	lui	t5,0xaaaab
800002a0:	aaaf0f13          	add	t5,t5,-1366 # aaaaaaaa <_end+0x2aaa506a>
800002a4:	9f1e                	add	t5,t5,t2
800002a6:	01e0ac23          	sw	t5,24(ra)

800002aa <inst_30>:
800002aa:	01000437          	lui	s0,0x1000
800002ae:	f8000537          	lui	a0,0xf8000
800002b2:	157d                	add	a0,a0,-1 # f7ffffff <immx+0x3d2f252f>
800002b4:	9522                	add	a0,a0,s0
800002b6:	00a0ae23          	sw	a0,28(ra)

800002ba <inst_31>:
800002ba:	02000fb7          	lui	t6,0x2000
800002be:	4a81                	li	s5,0
800002c0:	9afe                	add	s5,s5,t6
800002c2:	0350a023          	sw	s5,32(ra)

800002c6 <inst_32>:
800002c6:	040005b7          	lui	a1,0x4000
800002ca:	fbf00513          	li	a0,-65
800002ce:	952e                	add	a0,a0,a1
800002d0:	02a0a223          	sw	a0,36(ra)

800002d4 <inst_33>:
800002d4:	080005b7          	lui	a1,0x8000
800002d8:	7561                	lui	a0,0xffff8
800002da:	157d                	add	a0,a0,-1 # ffff7fff <immx+0x452ea52f>
800002dc:	952e                	add	a0,a0,a1
800002de:	02a0a423          	sw	a0,40(ra)

800002e2 <inst_34>:
800002e2:	100005b7          	lui	a1,0x10000
800002e6:	4511                	li	a0,4
800002e8:	952e                	add	a0,a0,a1
800002ea:	02a0a623          	sw	a0,44(ra)

800002ee <inst_35>:
800002ee:	200005b7          	lui	a1,0x20000
800002f2:	ffe00537          	lui	a0,0xffe00
800002f6:	157d                	add	a0,a0,-1 # ffdfffff <immx+0x450f252f>
800002f8:	952e                	add	a0,a0,a1
800002fa:	02a0a823          	sw	a0,48(ra)

800002fe <inst_36>:
800002fe:	400005b7          	lui	a1,0x40000
80000302:	00040537          	lui	a0,0x40
80000306:	952e                	add	a0,a0,a1
80000308:	02a0aa23          	sw	a0,52(ra)

8000030c <inst_37>:
8000030c:	55f9                	li	a1,-2
8000030e:	4511                	li	a0,4
80000310:	952e                	add	a0,a0,a1
80000312:	02a0ac23          	sw	a0,56(ra)

80000316 <inst_38>:
80000316:	55f5                	li	a1,-3
80000318:	7561                	lui	a0,0xffff8
8000031a:	157d                	add	a0,a0,-1 # ffff7fff <immx+0x452ea52f>
8000031c:	952e                	add	a0,a0,a1
8000031e:	02a0ae23          	sw	a0,60(ra)

80000322 <inst_39>:
80000322:	55ed                	li	a1,-5
80000324:	757d                	lui	a0,0xfffff
80000326:	7ff50513          	add	a0,a0,2047 # fffff7ff <immx+0x452f1d2f>
8000032a:	952e                	add	a0,a0,a1
8000032c:	04a0a023          	sw	a0,64(ra)

80000330 <inst_40>:
80000330:	55dd                	li	a1,-9
80000332:	4521                	li	a0,8
80000334:	952e                	add	a0,a0,a1
80000336:	04a0a223          	sw	a0,68(ra)

8000033a <inst_41>:
8000033a:	55bd                	li	a1,-17
8000033c:	5561                	li	a0,-8
8000033e:	952e                	add	a0,a0,a1
80000340:	04a0a423          	sw	a0,72(ra)

80000344 <inst_42>:
80000344:	fdf00593          	li	a1,-33
80000348:	451d                	li	a0,7
8000034a:	952e                	add	a0,a0,a1
8000034c:	04a0a623          	sw	a0,76(ra)

80000350 <inst_43>:
80000350:	fbf00593          	li	a1,-65
80000354:	bff00513          	li	a0,-1025
80000358:	952e                	add	a0,a0,a1
8000035a:	04a0a823          	sw	a0,80(ra)

8000035e <inst_44>:
8000035e:	f7f00593          	li	a1,-129
80000362:	66666537          	lui	a0,0x66666
80000366:	66750513          	add	a0,a0,1639 # 66666667 <absimm+0x21374138>
8000036a:	952e                	add	a0,a0,a1
8000036c:	04a0aa23          	sw	a0,84(ra)

80000370 <inst_45>:
80000370:	eff00593          	li	a1,-257
80000374:	c0000537          	lui	a0,0xc0000
80000378:	157d                	add	a0,a0,-1 # bfffffff <immx+0x52f252f>
8000037a:	952e                	add	a0,a0,a1
8000037c:	04a0ac23          	sw	a0,88(ra)

80000380 <inst_46>:
80000380:	dff00593          	li	a1,-513
80000384:	80000537          	lui	a0,0x80000
80000388:	157d                	add	a0,a0,-1 # 7fffffff <absimm+0x3ad0dad0>
8000038a:	952e                	add	a0,a0,a1
8000038c:	04a0ae23          	sw	a0,92(ra)

80000390 <inst_47>:
80000390:	bff00593          	li	a1,-1025
80000394:	6511                	lui	a0,0x4
80000396:	952e                	add	a0,a0,a1
80000398:	06a0a023          	sw	a0,96(ra)

8000039c <inst_48>:
8000039c:	75fd                	lui	a1,0xfffff
8000039e:	7ff58593          	add	a1,a1,2047 # fffff7ff <immx+0x452f1d2f>
800003a2:	40000537          	lui	a0,0x40000
800003a6:	157d                	add	a0,a0,-1 # 3fffffff <offset+0x3fffff37>
800003a8:	952e                	add	a0,a0,a1
800003aa:	06a0a223          	sw	a0,100(ra)

800003ae <inst_49>:
800003ae:	75fd                	lui	a1,0xfffff
800003b0:	15fd                	add	a1,a1,-1 # ffffefff <immx+0x452f152f>
800003b2:	dff00513          	li	a0,-513
800003b6:	952e                	add	a0,a0,a1
800003b8:	06a0a423          	sw	a0,104(ra)

800003bc <inst_50>:
800003bc:	75f9                	lui	a1,0xffffe
800003be:	15fd                	add	a1,a1,-1 # ffffdfff <immx+0x452f052f>
800003c0:	4521                	li	a0,8
800003c2:	952e                	add	a0,a0,a1
800003c4:	06a0a623          	sw	a0,108(ra)

800003c8 <inst_51>:
800003c8:	75f1                	lui	a1,0xffffc
800003ca:	15fd                	add	a1,a1,-1 # ffffbfff <immx+0x452ee52f>
800003cc:	33333537          	lui	a0,0x33333
800003d0:	33250513          	add	a0,a0,818 # 33333332 <offset+0x3333326a>
800003d4:	952e                	add	a0,a0,a1
800003d6:	06a0a823          	sw	a0,112(ra)

800003da <inst_52>:
800003da:	75e1                	lui	a1,0xffff8
800003dc:	15fd                	add	a1,a1,-1 # ffff7fff <immx+0x452ea52f>
800003de:	ffe00537          	lui	a0,0xffe00
800003e2:	157d                	add	a0,a0,-1 # ffdfffff <immx+0x450f252f>
800003e4:	952e                	add	a0,a0,a1
800003e6:	06a0aa23          	sw	a0,116(ra)

800003ea <inst_53>:
800003ea:	75c1                	lui	a1,0xffff0
800003ec:	15fd                	add	a1,a1,-1 # fffeffff <immx+0x452e252f>
800003ee:	6505                	lui	a0,0x1
800003f0:	952e                	add	a0,a0,a1
800003f2:	06a0ac23          	sw	a0,120(ra)

800003f6 <inst_54>:
800003f6:	7581                	lui	a1,0xfffe0
800003f8:	15fd                	add	a1,a1,-1 # fffdffff <immx+0x452d252f>
800003fa:	00800537          	lui	a0,0x800
800003fe:	952e                	add	a0,a0,a1
80000400:	06a0ae23          	sw	a0,124(ra)

80000404 <inst_55>:
80000404:	fffc05b7          	lui	a1,0xfffc0
80000408:	15fd                	add	a1,a1,-1 # fffbffff <immx+0x452b252f>
8000040a:	02000513          	li	a0,32
8000040e:	952e                	add	a0,a0,a1
80000410:	08a0a023          	sw	a0,128(ra)

80000414 <inst_56>:
80000414:	fff805b7          	lui	a1,0xfff80
80000418:	15fd                	add	a1,a1,-1 # fff7ffff <immx+0x4527252f>
8000041a:	00100537          	lui	a0,0x100
8000041e:	952e                	add	a0,a0,a1
80000420:	08a0a223          	sw	a0,132(ra)

80000424 <inst_57>:
80000424:	fff005b7          	lui	a1,0xfff00
80000428:	15fd                	add	a1,a1,-1 # ffefffff <immx+0x451f252f>
8000042a:	5569                	li	a0,-6
8000042c:	952e                	add	a0,a0,a1
8000042e:	08a0a423          	sw	a0,136(ra)

80000432 <inst_58>:
80000432:	ffc005b7          	lui	a1,0xffc00
80000436:	15fd                	add	a1,a1,-1 # ffbfffff <immx+0x44ef252f>
80000438:	555d                	li	a0,-9
8000043a:	952e                	add	a0,a0,a1
8000043c:	08a0a623          	sw	a0,140(ra)

80000440 <inst_59>:
80000440:	ff8005b7          	lui	a1,0xff800
80000444:	15fd                	add	a1,a1,-1 # ff7fffff <immx+0x44af252f>
80000446:	4501                	li	a0,0
80000448:	952e                	add	a0,a0,a1
8000044a:	08a0a823          	sw	a0,144(ra)

8000044e <inst_60>:
8000044e:	ff0005b7          	lui	a1,0xff000
80000452:	15fd                	add	a1,a1,-1 # feffffff <immx+0x442f252f>
80000454:	652d                	lui	a0,0xb
80000456:	50450513          	add	a0,a0,1284 # b504 <offset+0xb43c>
8000045a:	952e                	add	a0,a0,a1
8000045c:	08a0aa23          	sw	a0,148(ra)

80000460 <inst_61>:
80000460:	fe0005b7          	lui	a1,0xfe000
80000464:	15fd                	add	a1,a1,-1 # fdffffff <immx+0x432f252f>
80000466:	4501                	li	a0,0
80000468:	952e                	add	a0,a0,a1
8000046a:	08a0ac23          	sw	a0,152(ra)

8000046e <inst_62>:
8000046e:	fc0005b7          	lui	a1,0xfc000
80000472:	15fd                	add	a1,a1,-1 # fbffffff <immx+0x412f252f>
80000474:	652d                	lui	a0,0xb
80000476:	50450513          	add	a0,a0,1284 # b504 <offset+0xb43c>
8000047a:	952e                	add	a0,a0,a1
8000047c:	08a0ae23          	sw	a0,156(ra)

80000480 <inst_63>:
80000480:	f80005b7          	lui	a1,0xf8000
80000484:	15fd                	add	a1,a1,-1 # f7ffffff <immx+0x3d2f252f>
80000486:	5559                	li	a0,-10
80000488:	952e                	add	a0,a0,a1
8000048a:	0aa0a023          	sw	a0,160(ra)

8000048e <inst_64>:
8000048e:	f00005b7          	lui	a1,0xf0000
80000492:	15fd                	add	a1,a1,-1 # efffffff <immx+0x352f252f>
80000494:	aaaab537          	lui	a0,0xaaaab
80000498:	aaa50513          	add	a0,a0,-1366 # aaaaaaaa <_end+0x2aaa506a>
8000049c:	952e                	add	a0,a0,a1
8000049e:	0aa0a223          	sw	a0,164(ra)

800004a2 <inst_65>:
800004a2:	e00005b7          	lui	a1,0xe0000
800004a6:	15fd                	add	a1,a1,-1 # dfffffff <immx+0x252f252f>
800004a8:	4515                	li	a0,5
800004aa:	952e                	add	a0,a0,a1
800004ac:	0aa0a423          	sw	a0,168(ra)

800004b0 <inst_66>:
800004b0:	c00005b7          	lui	a1,0xc0000
800004b4:	15fd                	add	a1,a1,-1 # bfffffff <immx+0x52f252f>
800004b6:	5569                	li	a0,-6
800004b8:	952e                	add	a0,a0,a1
800004ba:	0aa0a623          	sw	a0,172(ra)

800004be <inst_67>:
800004be:	555555b7          	lui	a1,0x55555
800004c2:	55558593          	add	a1,a1,1365 # 55555555 <absimm+0x10263026>
800004c6:	4515                	li	a0,5
800004c8:	952e                	add	a0,a0,a1
800004ca:	0aa0a823          	sw	a0,176(ra)

800004ce <inst_68>:
800004ce:	aaaab5b7          	lui	a1,0xaaaab
800004d2:	aaa58593          	add	a1,a1,-1366 # aaaaaaaa <_end+0x2aaa506a>
800004d6:	7555                	lui	a0,0xffff5
800004d8:	afc50513          	add	a0,a0,-1284 # ffff4afc <immx+0x452e702c>
800004dc:	952e                	add	a0,a0,a1
800004de:	0aa0aa23          	sw	a0,180(ra)

800004e2 <inst_69>:
800004e2:	400005b7          	lui	a1,0x40000
800004e6:	4509                	li	a0,2
800004e8:	952e                	add	a0,a0,a1
800004ea:	0aa0ac23          	sw	a0,184(ra)

800004ee <inst_70>:
800004ee:	000405b7          	lui	a1,0x40
800004f2:	4541                	li	a0,16
800004f4:	952e                	add	a0,a0,a1
800004f6:	0aa0ae23          	sw	a0,188(ra)

800004fa <inst_71>:
800004fa:	75e1                	lui	a1,0xffff8
800004fc:	15fd                	add	a1,a1,-1 # ffff7fff <immx+0x452ea52f>
800004fe:	04000513          	li	a0,64
80000502:	952e                	add	a0,a0,a1
80000504:	0ca0a023          	sw	a0,192(ra)

80000508 <inst_72>:
80000508:	55fd                	li	a1,-1
8000050a:	08000513          	li	a0,128
8000050e:	952e                	add	a0,a0,a1
80000510:	0ca0a223          	sw	a0,196(ra)

80000514 <inst_73>:
80000514:	f7f00593          	li	a1,-129
80000518:	10000513          	li	a0,256
8000051c:	952e                	add	a0,a0,a1
8000051e:	0ca0a423          	sw	a0,200(ra)

80000522 <inst_74>:
80000522:	6591                	lui	a1,0x4
80000524:	20000513          	li	a0,512
80000528:	952e                	add	a0,a0,a1
8000052a:	0ca0a623          	sw	a0,204(ra)

8000052e <inst_75>:
8000052e:	75e1                	lui	a1,0xffff8
80000530:	15fd                	add	a1,a1,-1 # ffff7fff <immx+0x452ea52f>
80000532:	40000513          	li	a0,1024
80000536:	952e                	add	a0,a0,a1
80000538:	0ca0a823          	sw	a0,208(ra)

8000053c <inst_76>:
8000053c:	bff00593          	li	a1,-1025
80000540:	6505                	lui	a0,0x1
80000542:	80050513          	add	a0,a0,-2048 # 800 <offset+0x738>
80000546:	952e                	add	a0,a0,a1
80000548:	0ca0aa23          	sw	a0,212(ra)

8000054c <inst_77>:
8000054c:	6585                	lui	a1,0x1
8000054e:	6509                	lui	a0,0x2
80000550:	952e                	add	a0,a0,a1
80000552:	0ca0ac23          	sw	a0,216(ra)

80000556 <inst_78>:
80000556:	555555b7          	lui	a1,0x55555
8000055a:	55458593          	add	a1,a1,1364 # 55555554 <absimm+0x10263025>
8000055e:	6521                	lui	a0,0x8
80000560:	952e                	add	a0,a0,a1
80000562:	0ca0ae23          	sw	a0,220(ra)

80000566 <inst_79>:
80000566:	333335b7          	lui	a1,0x33333
8000056a:	33258593          	add	a1,a1,818 # 33333332 <offset+0x3333326a>
8000056e:	00020537          	lui	a0,0x20
80000572:	952e                	add	a0,a0,a1
80000574:	0ea0a023          	sw	a0,224(ra)

80000578 <inst_80>:
80000578:	45c1                	li	a1,16
8000057a:	00400537          	lui	a0,0x400
8000057e:	952e                	add	a0,a0,a1
80000580:	0ea0a223          	sw	a0,228(ra)

80000584 <inst_81>:
80000584:	dff00593          	li	a1,-513
80000588:	01000537          	lui	a0,0x1000
8000058c:	952e                	add	a0,a0,a1
8000058e:	0ea0a423          	sw	a0,232(ra)

80000592 <inst_82>:
80000592:	55d9                	li	a1,-10
80000594:	08000537          	lui	a0,0x8000
80000598:	952e                	add	a0,a0,a1
8000059a:	0ea0a623          	sw	a0,236(ra)

8000059e <inst_83>:
8000059e:	800005b7          	lui	a1,0x80000
800005a2:	10000537          	lui	a0,0x10000
800005a6:	952e                	add	a0,a0,a1
800005a8:	0ea0a823          	sw	a0,240(ra)

800005ac <inst_84>:
800005ac:	55ed                	li	a1,-5
800005ae:	20000537          	lui	a0,0x20000
800005b2:	952e                	add	a0,a0,a1
800005b4:	0ea0aa23          	sw	a0,244(ra)

800005b8 <inst_85>:
800005b8:	02000593          	li	a1,32
800005bc:	40000537          	lui	a0,0x40000
800005c0:	952e                	add	a0,a0,a1
800005c2:	0ea0ac23          	sw	a0,248(ra)

800005c6 <inst_86>:
800005c6:	6589                	lui	a1,0x2
800005c8:	5575                	li	a0,-3
800005ca:	952e                	add	a0,a0,a1
800005cc:	0ea0ae23          	sw	a0,252(ra)

800005d0 <inst_87>:
800005d0:	4589                	li	a1,2
800005d2:	556d                	li	a0,-5
800005d4:	952e                	add	a0,a0,a1
800005d6:	10a0a023          	sw	a0,256(ra)

800005da <inst_88>:
800005da:	800005b7          	lui	a1,0x80000
800005de:	15fd                	add	a1,a1,-1 # 7fffffff <absimm+0x3ad0dad0>
800005e0:	fdf00513          	li	a0,-33
800005e4:	952e                	add	a0,a0,a1
800005e6:	10a0a223          	sw	a0,260(ra)

800005ea <inst_89>:
800005ea:	4585                	li	a1,1
800005ec:	eff00513          	li	a0,-257
800005f0:	952e                	add	a0,a0,a1
800005f2:	10a0a423          	sw	a0,264(ra)

800005f6 <inst_90>:
800005f6:	40000593          	li	a1,1024
800005fa:	757d                	lui	a0,0xfffff
800005fc:	157d                	add	a0,a0,-1 # ffffefff <immx+0x452f152f>
800005fe:	952e                	add	a0,a0,a1
80000600:	10a0a623          	sw	a0,268(ra)

80000604 <inst_91>:
80000604:	4581                	li	a1,0
80000606:	7579                	lui	a0,0xffffe
80000608:	157d                	add	a0,a0,-1 # ffffdfff <immx+0x452f052f>
8000060a:	952e                	add	a0,a0,a1
8000060c:	10a0a823          	sw	a0,272(ra)

80000610 <inst_92>:
80000610:	6585                	lui	a1,0x1
80000612:	7571                	lui	a0,0xffffc
80000614:	157d                	add	a0,a0,-1 # ffffbfff <immx+0x452ee52f>
80000616:	952e                	add	a0,a0,a1
80000618:	10a0aa23          	sw	a0,276(ra)

8000061c <inst_93>:
8000061c:	555555b7          	lui	a1,0x55555
80000620:	55658593          	add	a1,a1,1366 # 55555556 <absimm+0x10263027>
80000624:	7501                	lui	a0,0xfffe0
80000626:	157d                	add	a0,a0,-1 # fffdffff <immx+0x452d252f>
80000628:	952e                	add	a0,a0,a1
8000062a:	10a0ac23          	sw	a0,280(ra)

8000062e <inst_94>:
8000062e:	75d5                	lui	a1,0xffff5
80000630:	afd58593          	add	a1,a1,-1283 # ffff4afd <immx+0x452e702d>
80000634:	fffc0537          	lui	a0,0xfffc0
80000638:	157d                	add	a0,a0,-1 # fffbffff <immx+0x452b252f>
8000063a:	952e                	add	a0,a0,a1
8000063c:	10a0ae23          	sw	a0,284(ra)

80000640 <inst_95>:
80000640:	000405b7          	lui	a1,0x40
80000644:	fff80537          	lui	a0,0xfff80
80000648:	157d                	add	a0,a0,-1 # fff7ffff <immx+0x4527252f>
8000064a:	952e                	add	a0,a0,a1
8000064c:	12a0a023          	sw	a0,288(ra)

80000650 <inst_96>:
80000650:	040005b7          	lui	a1,0x4000
80000654:	fff00537          	lui	a0,0xfff00
80000658:	157d                	add	a0,a0,-1 # ffefffff <immx+0x451f252f>
8000065a:	952e                	add	a0,a0,a1
8000065c:	12a0a223          	sw	a0,292(ra)

80000660 <inst_97>:
80000660:	20000593          	li	a1,512
80000664:	ffc00537          	lui	a0,0xffc00
80000668:	157d                	add	a0,a0,-1 # ffbfffff <immx+0x44ef252f>
8000066a:	952e                	add	a0,a0,a1
8000066c:	12a0a423          	sw	a0,296(ra)

80000670 <inst_98>:
80000670:	555555b7          	lui	a1,0x55555
80000674:	55458593          	add	a1,a1,1364 # 55555554 <absimm+0x10263025>
80000678:	ff000537          	lui	a0,0xff000
8000067c:	157d                	add	a0,a0,-1 # feffffff <immx+0x442f252f>
8000067e:	952e                	add	a0,a0,a1
80000680:	12a0a623          	sw	a0,300(ra)

80000684 <inst_99>:
80000684:	000405b7          	lui	a1,0x40
80000688:	fe000537          	lui	a0,0xfe000
8000068c:	157d                	add	a0,a0,-1 # fdffffff <immx+0x432f252f>
8000068e:	952e                	add	a0,a0,a1
80000690:	12a0a823          	sw	a0,304(ra)

80000694 <inst_100>:
80000694:	75f1                	lui	a1,0xffffc
80000696:	15fd                	add	a1,a1,-1 # ffffbfff <immx+0x452ee52f>
80000698:	fc000537          	lui	a0,0xfc000
8000069c:	157d                	add	a0,a0,-1 # fbffffff <immx+0x412f252f>
8000069e:	952e                	add	a0,a0,a1
800006a0:	12a0aa23          	sw	a0,308(ra)

800006a4 <inst_101>:
800006a4:	100005b7          	lui	a1,0x10000
800006a8:	f0000537          	lui	a0,0xf0000
800006ac:	157d                	add	a0,a0,-1 # efffffff <immx+0x352f252f>
800006ae:	952e                	add	a0,a0,a1
800006b0:	12a0ac23          	sw	a0,312(ra)

800006b4 <inst_102>:
800006b4:	e00005b7          	lui	a1,0xe0000
800006b8:	15fd                	add	a1,a1,-1 # dfffffff <immx+0x252f252f>
800006ba:	e0000537          	lui	a0,0xe0000
800006be:	157d                	add	a0,a0,-1 # dfffffff <immx+0x252f252f>
800006c0:	952e                	add	a0,a0,a1
800006c2:	12a0ae23          	sw	a0,316(ra)

800006c6 <inst_103>:
800006c6:	65a1                	lui	a1,0x8
800006c8:	55555537          	lui	a0,0x55555
800006cc:	55550513          	add	a0,a0,1365 # 55555555 <absimm+0x10263026>
800006d0:	952e                	add	a0,a0,a1
800006d2:	14a0a023          	sw	a0,320(ra)

800006d6 <inst_104>:
800006d6:	458d                	li	a1,3
800006d8:	450d                	li	a0,3
800006da:	952e                	add	a0,a0,a1
800006dc:	14a0a223          	sw	a0,324(ra)

800006e0 <inst_105>:
800006e0:	555555b7          	lui	a1,0x55555
800006e4:	55558593          	add	a1,a1,1365 # 55555555 <absimm+0x10263026>
800006e8:	450d                	li	a0,3
800006ea:	952e                	add	a0,a0,a1
800006ec:	14a0a423          	sw	a0,328(ra)

800006f0 <inst_106>:
800006f0:	aaaab5b7          	lui	a1,0xaaaab
800006f4:	aaa58593          	add	a1,a1,-1366 # aaaaaaaa <_end+0x2aaa506a>
800006f8:	450d                	li	a0,3
800006fa:	952e                	add	a0,a0,a1
800006fc:	14a0a623          	sw	a0,332(ra)

80000700 <inst_107>:
80000700:	4595                	li	a1,5
80000702:	450d                	li	a0,3
80000704:	952e                	add	a0,a0,a1
80000706:	14a0a823          	sw	a0,336(ra)

8000070a <inst_108>:
8000070a:	333335b7          	lui	a1,0x33333
8000070e:	33358593          	add	a1,a1,819 # 33333333 <offset+0x3333326b>
80000712:	450d                	li	a0,3
80000714:	952e                	add	a0,a0,a1
80000716:	14a0aa23          	sw	a0,340(ra)

8000071a <inst_109>:
8000071a:	666665b7          	lui	a1,0x66666
8000071e:	66658593          	add	a1,a1,1638 # 66666666 <absimm+0x21374137>
80000722:	450d                	li	a0,3
80000724:	952e                	add	a0,a0,a1
80000726:	14a0ac23          	sw	a0,344(ra)

8000072a <inst_110>:
8000072a:	75d5                	lui	a1,0xffff5
8000072c:	afc58593          	add	a1,a1,-1284 # ffff4afc <immx+0x452e702c>
80000730:	450d                	li	a0,3
80000732:	952e                	add	a0,a0,a1
80000734:	14a0ae23          	sw	a0,348(ra)

80000738 <inst_111>:
80000738:	65ad                	lui	a1,0xb
8000073a:	50458593          	add	a1,a1,1284 # b504 <offset+0xb43c>
8000073e:	450d                	li	a0,3
80000740:	952e                	add	a0,a0,a1
80000742:	16a0a023          	sw	a0,352(ra)

80000746 <inst_112>:
80000746:	4589                	li	a1,2
80000748:	450d                	li	a0,3
8000074a:	952e                	add	a0,a0,a1
8000074c:	16a0a223          	sw	a0,356(ra)

80000750 <inst_113>:
80000750:	555555b7          	lui	a1,0x55555
80000754:	55458593          	add	a1,a1,1364 # 55555554 <absimm+0x10263025>
80000758:	450d                	li	a0,3
8000075a:	952e                	add	a0,a0,a1
8000075c:	16a0a423          	sw	a0,360(ra)

80000760 <inst_114>:
80000760:	4581                	li	a1,0
80000762:	450d                	li	a0,3
80000764:	952e                	add	a0,a0,a1
80000766:	16a0a623          	sw	a0,364(ra)

8000076a <inst_115>:
8000076a:	4591                	li	a1,4
8000076c:	450d                	li	a0,3
8000076e:	952e                	add	a0,a0,a1
80000770:	16a0a823          	sw	a0,368(ra)

80000774 <inst_116>:
80000774:	333335b7          	lui	a1,0x33333
80000778:	33258593          	add	a1,a1,818 # 33333332 <offset+0x3333326a>
8000077c:	450d                	li	a0,3
8000077e:	952e                	add	a0,a0,a1
80000780:	16a0aa23          	sw	a0,372(ra)

80000784 <inst_117>:
80000784:	666665b7          	lui	a1,0x66666
80000788:	66558593          	add	a1,a1,1637 # 66666665 <absimm+0x21374136>
8000078c:	450d                	li	a0,3
8000078e:	952e                	add	a0,a0,a1
80000790:	16a0ac23          	sw	a0,376(ra)

80000794 <inst_118>:
80000794:	65ad                	lui	a1,0xb
80000796:	50358593          	add	a1,a1,1283 # b503 <offset+0xb43b>
8000079a:	450d                	li	a0,3
8000079c:	952e                	add	a0,a0,a1
8000079e:	16a0ae23          	sw	a0,380(ra)

800007a2 <inst_119>:
800007a2:	555555b7          	lui	a1,0x55555
800007a6:	55658593          	add	a1,a1,1366 # 55555556 <absimm+0x10263027>
800007aa:	450d                	li	a0,3
800007ac:	952e                	add	a0,a0,a1
800007ae:	18a0a023          	sw	a0,384(ra)

800007b2 <inst_120>:
800007b2:	aaaab5b7          	lui	a1,0xaaaab
800007b6:	aab58593          	add	a1,a1,-1365 # aaaaaaab <_end+0x2aaa506b>
800007ba:	450d                	li	a0,3
800007bc:	952e                	add	a0,a0,a1
800007be:	18a0a223          	sw	a0,388(ra)

800007c2 <inst_121>:
800007c2:	4599                	li	a1,6
800007c4:	450d                	li	a0,3
800007c6:	952e                	add	a0,a0,a1
800007c8:	18a0a423          	sw	a0,392(ra)

800007cc <inst_122>:
800007cc:	333335b7          	lui	a1,0x33333
800007d0:	33458593          	add	a1,a1,820 # 33333334 <offset+0x3333326c>
800007d4:	450d                	li	a0,3
800007d6:	952e                	add	a0,a0,a1
800007d8:	18a0a623          	sw	a0,396(ra)

800007dc <inst_123>:
800007dc:	666665b7          	lui	a1,0x66666
800007e0:	66758593          	add	a1,a1,1639 # 66666667 <absimm+0x21374138>
800007e4:	450d                	li	a0,3
800007e6:	952e                	add	a0,a0,a1
800007e8:	18a0a823          	sw	a0,400(ra)

800007ec <inst_124>:
800007ec:	75d5                	lui	a1,0xffff5
800007ee:	afd58593          	add	a1,a1,-1283 # ffff4afd <immx+0x452e702d>
800007f2:	450d                	li	a0,3
800007f4:	952e                	add	a0,a0,a1
800007f6:	18a0aa23          	sw	a0,404(ra)

800007fa <inst_125>:
800007fa:	65ad                	lui	a1,0xb
800007fc:	50558593          	add	a1,a1,1285 # b505 <offset+0xb43d>
80000800:	450d                	li	a0,3
80000802:	952e                	add	a0,a0,a1
80000804:	18a0ac23          	sw	a0,408(ra)

80000808 <inst_126>:
80000808:	458d                	li	a1,3
8000080a:	55555537          	lui	a0,0x55555
8000080e:	55550513          	add	a0,a0,1365 # 55555555 <absimm+0x10263026>
80000812:	952e                	add	a0,a0,a1
80000814:	18a0ae23          	sw	a0,412(ra)

80000818 <inst_127>:
80000818:	555555b7          	lui	a1,0x55555
8000081c:	55558593          	add	a1,a1,1365 # 55555555 <absimm+0x10263026>
80000820:	55555537          	lui	a0,0x55555
80000824:	55550513          	add	a0,a0,1365 # 55555555 <absimm+0x10263026>
80000828:	952e                	add	a0,a0,a1
8000082a:	1aa0a023          	sw	a0,416(ra)

8000082e <inst_128>:
8000082e:	aaaab5b7          	lui	a1,0xaaaab
80000832:	aaa58593          	add	a1,a1,-1366 # aaaaaaaa <_end+0x2aaa506a>
80000836:	55555537          	lui	a0,0x55555
8000083a:	55550513          	add	a0,a0,1365 # 55555555 <absimm+0x10263026>
8000083e:	952e                	add	a0,a0,a1
80000840:	1aa0a223          	sw	a0,420(ra)

80000844 <inst_129>:
80000844:	4595                	li	a1,5
80000846:	55555537          	lui	a0,0x55555
8000084a:	55550513          	add	a0,a0,1365 # 55555555 <absimm+0x10263026>
8000084e:	952e                	add	a0,a0,a1
80000850:	1aa0a423          	sw	a0,424(ra)

80000854 <inst_130>:
80000854:	333335b7          	lui	a1,0x33333
80000858:	33358593          	add	a1,a1,819 # 33333333 <offset+0x3333326b>
8000085c:	55555537          	lui	a0,0x55555
80000860:	55550513          	add	a0,a0,1365 # 55555555 <absimm+0x10263026>
80000864:	952e                	add	a0,a0,a1
80000866:	1aa0a623          	sw	a0,428(ra)

8000086a <inst_131>:
8000086a:	666665b7          	lui	a1,0x66666
8000086e:	66658593          	add	a1,a1,1638 # 66666666 <absimm+0x21374137>
80000872:	55555537          	lui	a0,0x55555
80000876:	55550513          	add	a0,a0,1365 # 55555555 <absimm+0x10263026>
8000087a:	952e                	add	a0,a0,a1
8000087c:	1aa0a823          	sw	a0,432(ra)

80000880 <inst_132>:
80000880:	75d5                	lui	a1,0xffff5
80000882:	afc58593          	add	a1,a1,-1284 # ffff4afc <immx+0x452e702c>
80000886:	55555537          	lui	a0,0x55555
8000088a:	55550513          	add	a0,a0,1365 # 55555555 <absimm+0x10263026>
8000088e:	952e                	add	a0,a0,a1
80000890:	1aa0aa23          	sw	a0,436(ra)

80000894 <inst_133>:
80000894:	65ad                	lui	a1,0xb
80000896:	50458593          	add	a1,a1,1284 # b504 <offset+0xb43c>
8000089a:	55555537          	lui	a0,0x55555
8000089e:	55550513          	add	a0,a0,1365 # 55555555 <absimm+0x10263026>
800008a2:	952e                	add	a0,a0,a1
800008a4:	1aa0ac23          	sw	a0,440(ra)

800008a8 <inst_134>:
800008a8:	4589                	li	a1,2
800008aa:	55555537          	lui	a0,0x55555
800008ae:	55550513          	add	a0,a0,1365 # 55555555 <absimm+0x10263026>
800008b2:	952e                	add	a0,a0,a1
800008b4:	1aa0ae23          	sw	a0,444(ra)

800008b8 <inst_135>:
800008b8:	555555b7          	lui	a1,0x55555
800008bc:	55458593          	add	a1,a1,1364 # 55555554 <absimm+0x10263025>
800008c0:	55555537          	lui	a0,0x55555
800008c4:	55550513          	add	a0,a0,1365 # 55555555 <absimm+0x10263026>
800008c8:	952e                	add	a0,a0,a1
800008ca:	1ca0a023          	sw	a0,448(ra)

800008ce <inst_136>:
800008ce:	4581                	li	a1,0
800008d0:	55555537          	lui	a0,0x55555
800008d4:	55550513          	add	a0,a0,1365 # 55555555 <absimm+0x10263026>
800008d8:	952e                	add	a0,a0,a1
800008da:	1ca0a223          	sw	a0,452(ra)

800008de <inst_137>:
800008de:	4591                	li	a1,4
800008e0:	55555537          	lui	a0,0x55555
800008e4:	55550513          	add	a0,a0,1365 # 55555555 <absimm+0x10263026>
800008e8:	952e                	add	a0,a0,a1
800008ea:	1ca0a423          	sw	a0,456(ra)

800008ee <inst_138>:
800008ee:	333335b7          	lui	a1,0x33333
800008f2:	33258593          	add	a1,a1,818 # 33333332 <offset+0x3333326a>
800008f6:	55555537          	lui	a0,0x55555
800008fa:	55550513          	add	a0,a0,1365 # 55555555 <absimm+0x10263026>
800008fe:	952e                	add	a0,a0,a1
80000900:	1ca0a623          	sw	a0,460(ra)

80000904 <inst_139>:
80000904:	666665b7          	lui	a1,0x66666
80000908:	66558593          	add	a1,a1,1637 # 66666665 <absimm+0x21374136>
8000090c:	55555537          	lui	a0,0x55555
80000910:	55550513          	add	a0,a0,1365 # 55555555 <absimm+0x10263026>
80000914:	952e                	add	a0,a0,a1
80000916:	1ca0a823          	sw	a0,464(ra)

8000091a <inst_140>:
8000091a:	65ad                	lui	a1,0xb
8000091c:	50358593          	add	a1,a1,1283 # b503 <offset+0xb43b>
80000920:	55555537          	lui	a0,0x55555
80000924:	55550513          	add	a0,a0,1365 # 55555555 <absimm+0x10263026>
80000928:	952e                	add	a0,a0,a1
8000092a:	1ca0aa23          	sw	a0,468(ra)

8000092e <inst_141>:
8000092e:	555555b7          	lui	a1,0x55555
80000932:	55658593          	add	a1,a1,1366 # 55555556 <absimm+0x10263027>
80000936:	55555537          	lui	a0,0x55555
8000093a:	55550513          	add	a0,a0,1365 # 55555555 <absimm+0x10263026>
8000093e:	952e                	add	a0,a0,a1
80000940:	1ca0ac23          	sw	a0,472(ra)

80000944 <inst_142>:
80000944:	aaaab5b7          	lui	a1,0xaaaab
80000948:	aab58593          	add	a1,a1,-1365 # aaaaaaab <_end+0x2aaa506b>
8000094c:	55555537          	lui	a0,0x55555
80000950:	55550513          	add	a0,a0,1365 # 55555555 <absimm+0x10263026>
80000954:	952e                	add	a0,a0,a1
80000956:	1ca0ae23          	sw	a0,476(ra)

8000095a <inst_143>:
8000095a:	4599                	li	a1,6
8000095c:	55555537          	lui	a0,0x55555
80000960:	55550513          	add	a0,a0,1365 # 55555555 <absimm+0x10263026>
80000964:	952e                	add	a0,a0,a1
80000966:	1ea0a023          	sw	a0,480(ra)

8000096a <inst_144>:
8000096a:	333335b7          	lui	a1,0x33333
8000096e:	33458593          	add	a1,a1,820 # 33333334 <offset+0x3333326c>
80000972:	55555537          	lui	a0,0x55555
80000976:	55550513          	add	a0,a0,1365 # 55555555 <absimm+0x10263026>
8000097a:	952e                	add	a0,a0,a1
8000097c:	1ea0a223          	sw	a0,484(ra)

80000980 <inst_145>:
80000980:	666665b7          	lui	a1,0x66666
80000984:	66758593          	add	a1,a1,1639 # 66666667 <absimm+0x21374138>
80000988:	55555537          	lui	a0,0x55555
8000098c:	55550513          	add	a0,a0,1365 # 55555555 <absimm+0x10263026>
80000990:	952e                	add	a0,a0,a1
80000992:	1ea0a423          	sw	a0,488(ra)

80000996 <inst_146>:
80000996:	75d5                	lui	a1,0xffff5
80000998:	afd58593          	add	a1,a1,-1283 # ffff4afd <immx+0x452e702d>
8000099c:	55555537          	lui	a0,0x55555
800009a0:	55550513          	add	a0,a0,1365 # 55555555 <absimm+0x10263026>
800009a4:	952e                	add	a0,a0,a1
800009a6:	1ea0a623          	sw	a0,492(ra)

800009aa <inst_147>:
800009aa:	65ad                	lui	a1,0xb
800009ac:	50558593          	add	a1,a1,1285 # b505 <offset+0xb43d>
800009b0:	55555537          	lui	a0,0x55555
800009b4:	55550513          	add	a0,a0,1365 # 55555555 <absimm+0x10263026>
800009b8:	952e                	add	a0,a0,a1
800009ba:	1ea0a823          	sw	a0,496(ra)

800009be <inst_148>:
800009be:	458d                	li	a1,3
800009c0:	aaaab537          	lui	a0,0xaaaab
800009c4:	aaa50513          	add	a0,a0,-1366 # aaaaaaaa <_end+0x2aaa506a>
800009c8:	952e                	add	a0,a0,a1
800009ca:	1ea0aa23          	sw	a0,500(ra)

800009ce <inst_149>:
800009ce:	555555b7          	lui	a1,0x55555
800009d2:	55558593          	add	a1,a1,1365 # 55555555 <absimm+0x10263026>
800009d6:	aaaab537          	lui	a0,0xaaaab
800009da:	aaa50513          	add	a0,a0,-1366 # aaaaaaaa <_end+0x2aaa506a>
800009de:	952e                	add	a0,a0,a1
800009e0:	1ea0ac23          	sw	a0,504(ra)

800009e4 <inst_150>:
800009e4:	aaaab5b7          	lui	a1,0xaaaab
800009e8:	aaa58593          	add	a1,a1,-1366 # aaaaaaaa <_end+0x2aaa506a>
800009ec:	aaaab537          	lui	a0,0xaaaab
800009f0:	aaa50513          	add	a0,a0,-1366 # aaaaaaaa <_end+0x2aaa506a>
800009f4:	952e                	add	a0,a0,a1
800009f6:	1ea0ae23          	sw	a0,508(ra)

800009fa <inst_151>:
800009fa:	4595                	li	a1,5
800009fc:	aaaab537          	lui	a0,0xaaaab
80000a00:	aaa50513          	add	a0,a0,-1366 # aaaaaaaa <_end+0x2aaa506a>
80000a04:	952e                	add	a0,a0,a1
80000a06:	20a0a023          	sw	a0,512(ra)

80000a0a <inst_152>:
80000a0a:	333335b7          	lui	a1,0x33333
80000a0e:	33358593          	add	a1,a1,819 # 33333333 <offset+0x3333326b>
80000a12:	aaaab537          	lui	a0,0xaaaab
80000a16:	aaa50513          	add	a0,a0,-1366 # aaaaaaaa <_end+0x2aaa506a>
80000a1a:	952e                	add	a0,a0,a1
80000a1c:	20a0a223          	sw	a0,516(ra)

80000a20 <inst_153>:
80000a20:	666665b7          	lui	a1,0x66666
80000a24:	66658593          	add	a1,a1,1638 # 66666666 <absimm+0x21374137>
80000a28:	aaaab537          	lui	a0,0xaaaab
80000a2c:	aaa50513          	add	a0,a0,-1366 # aaaaaaaa <_end+0x2aaa506a>
80000a30:	952e                	add	a0,a0,a1
80000a32:	20a0a423          	sw	a0,520(ra)

80000a36 <inst_154>:
80000a36:	75d5                	lui	a1,0xffff5
80000a38:	afc58593          	add	a1,a1,-1284 # ffff4afc <immx+0x452e702c>
80000a3c:	aaaab537          	lui	a0,0xaaaab
80000a40:	aaa50513          	add	a0,a0,-1366 # aaaaaaaa <_end+0x2aaa506a>
80000a44:	952e                	add	a0,a0,a1
80000a46:	20a0a623          	sw	a0,524(ra)

80000a4a <inst_155>:
80000a4a:	65ad                	lui	a1,0xb
80000a4c:	50458593          	add	a1,a1,1284 # b504 <offset+0xb43c>
80000a50:	aaaab537          	lui	a0,0xaaaab
80000a54:	aaa50513          	add	a0,a0,-1366 # aaaaaaaa <_end+0x2aaa506a>
80000a58:	952e                	add	a0,a0,a1
80000a5a:	20a0a823          	sw	a0,528(ra)

80000a5e <inst_156>:
80000a5e:	4589                	li	a1,2
80000a60:	aaaab537          	lui	a0,0xaaaab
80000a64:	aaa50513          	add	a0,a0,-1366 # aaaaaaaa <_end+0x2aaa506a>
80000a68:	952e                	add	a0,a0,a1
80000a6a:	20a0aa23          	sw	a0,532(ra)

80000a6e <inst_157>:
80000a6e:	555555b7          	lui	a1,0x55555
80000a72:	55458593          	add	a1,a1,1364 # 55555554 <absimm+0x10263025>
80000a76:	aaaab537          	lui	a0,0xaaaab
80000a7a:	aaa50513          	add	a0,a0,-1366 # aaaaaaaa <_end+0x2aaa506a>
80000a7e:	952e                	add	a0,a0,a1
80000a80:	20a0ac23          	sw	a0,536(ra)

80000a84 <inst_158>:
80000a84:	4581                	li	a1,0
80000a86:	aaaab537          	lui	a0,0xaaaab
80000a8a:	aaa50513          	add	a0,a0,-1366 # aaaaaaaa <_end+0x2aaa506a>
80000a8e:	952e                	add	a0,a0,a1
80000a90:	20a0ae23          	sw	a0,540(ra)

80000a94 <inst_159>:
80000a94:	4591                	li	a1,4
80000a96:	aaaab537          	lui	a0,0xaaaab
80000a9a:	aaa50513          	add	a0,a0,-1366 # aaaaaaaa <_end+0x2aaa506a>
80000a9e:	952e                	add	a0,a0,a1
80000aa0:	22a0a023          	sw	a0,544(ra)

80000aa4 <inst_160>:
80000aa4:	333335b7          	lui	a1,0x33333
80000aa8:	33258593          	add	a1,a1,818 # 33333332 <offset+0x3333326a>
80000aac:	aaaab537          	lui	a0,0xaaaab
80000ab0:	aaa50513          	add	a0,a0,-1366 # aaaaaaaa <_end+0x2aaa506a>
80000ab4:	952e                	add	a0,a0,a1
80000ab6:	22a0a223          	sw	a0,548(ra)

80000aba <inst_161>:
80000aba:	666665b7          	lui	a1,0x66666
80000abe:	66558593          	add	a1,a1,1637 # 66666665 <absimm+0x21374136>
80000ac2:	aaaab537          	lui	a0,0xaaaab
80000ac6:	aaa50513          	add	a0,a0,-1366 # aaaaaaaa <_end+0x2aaa506a>
80000aca:	952e                	add	a0,a0,a1
80000acc:	22a0a423          	sw	a0,552(ra)

80000ad0 <inst_162>:
80000ad0:	65ad                	lui	a1,0xb
80000ad2:	50358593          	add	a1,a1,1283 # b503 <offset+0xb43b>
80000ad6:	aaaab537          	lui	a0,0xaaaab
80000ada:	aaa50513          	add	a0,a0,-1366 # aaaaaaaa <_end+0x2aaa506a>
80000ade:	952e                	add	a0,a0,a1
80000ae0:	22a0a623          	sw	a0,556(ra)

80000ae4 <inst_163>:
80000ae4:	555555b7          	lui	a1,0x55555
80000ae8:	55658593          	add	a1,a1,1366 # 55555556 <absimm+0x10263027>
80000aec:	aaaab537          	lui	a0,0xaaaab
80000af0:	aaa50513          	add	a0,a0,-1366 # aaaaaaaa <_end+0x2aaa506a>
80000af4:	952e                	add	a0,a0,a1
80000af6:	22a0a823          	sw	a0,560(ra)

80000afa <inst_164>:
80000afa:	aaaab5b7          	lui	a1,0xaaaab
80000afe:	aab58593          	add	a1,a1,-1365 # aaaaaaab <_end+0x2aaa506b>
80000b02:	aaaab537          	lui	a0,0xaaaab
80000b06:	aaa50513          	add	a0,a0,-1366 # aaaaaaaa <_end+0x2aaa506a>
80000b0a:	952e                	add	a0,a0,a1
80000b0c:	22a0aa23          	sw	a0,564(ra)

80000b10 <inst_165>:
80000b10:	4599                	li	a1,6
80000b12:	aaaab537          	lui	a0,0xaaaab
80000b16:	aaa50513          	add	a0,a0,-1366 # aaaaaaaa <_end+0x2aaa506a>
80000b1a:	952e                	add	a0,a0,a1
80000b1c:	22a0ac23          	sw	a0,568(ra)

80000b20 <inst_166>:
80000b20:	333335b7          	lui	a1,0x33333
80000b24:	33458593          	add	a1,a1,820 # 33333334 <offset+0x3333326c>
80000b28:	aaaab537          	lui	a0,0xaaaab
80000b2c:	aaa50513          	add	a0,a0,-1366 # aaaaaaaa <_end+0x2aaa506a>
80000b30:	952e                	add	a0,a0,a1
80000b32:	22a0ae23          	sw	a0,572(ra)

80000b36 <inst_167>:
80000b36:	666665b7          	lui	a1,0x66666
80000b3a:	66758593          	add	a1,a1,1639 # 66666667 <absimm+0x21374138>
80000b3e:	aaaab537          	lui	a0,0xaaaab
80000b42:	aaa50513          	add	a0,a0,-1366 # aaaaaaaa <_end+0x2aaa506a>
80000b46:	952e                	add	a0,a0,a1
80000b48:	24a0a023          	sw	a0,576(ra)

80000b4c <inst_168>:
80000b4c:	75d5                	lui	a1,0xffff5
80000b4e:	afd58593          	add	a1,a1,-1283 # ffff4afd <immx+0x452e702d>
80000b52:	aaaab537          	lui	a0,0xaaaab
80000b56:	aaa50513          	add	a0,a0,-1366 # aaaaaaaa <_end+0x2aaa506a>
80000b5a:	952e                	add	a0,a0,a1
80000b5c:	24a0a223          	sw	a0,580(ra)

80000b60 <inst_169>:
80000b60:	65ad                	lui	a1,0xb
80000b62:	50558593          	add	a1,a1,1285 # b505 <offset+0xb43d>
80000b66:	aaaab537          	lui	a0,0xaaaab
80000b6a:	aaa50513          	add	a0,a0,-1366 # aaaaaaaa <_end+0x2aaa506a>
80000b6e:	952e                	add	a0,a0,a1
80000b70:	24a0a423          	sw	a0,584(ra)

80000b74 <inst_170>:
80000b74:	458d                	li	a1,3
80000b76:	4515                	li	a0,5
80000b78:	952e                	add	a0,a0,a1
80000b7a:	24a0a623          	sw	a0,588(ra)

80000b7e <inst_171>:
80000b7e:	aaaab5b7          	lui	a1,0xaaaab
80000b82:	aaa58593          	add	a1,a1,-1366 # aaaaaaaa <_end+0x2aaa506a>
80000b86:	4515                	li	a0,5
80000b88:	952e                	add	a0,a0,a1
80000b8a:	24a0a823          	sw	a0,592(ra)

80000b8e <inst_172>:
80000b8e:	4595                	li	a1,5
80000b90:	4515                	li	a0,5
80000b92:	952e                	add	a0,a0,a1
80000b94:	24a0aa23          	sw	a0,596(ra)

80000b98 <inst_173>:
80000b98:	333335b7          	lui	a1,0x33333
80000b9c:	33358593          	add	a1,a1,819 # 33333333 <offset+0x3333326b>
80000ba0:	4515                	li	a0,5
80000ba2:	952e                	add	a0,a0,a1
80000ba4:	24a0ac23          	sw	a0,600(ra)

80000ba8 <inst_174>:
80000ba8:	666665b7          	lui	a1,0x66666
80000bac:	66658593          	add	a1,a1,1638 # 66666666 <absimm+0x21374137>
80000bb0:	4515                	li	a0,5
80000bb2:	952e                	add	a0,a0,a1
80000bb4:	24a0ae23          	sw	a0,604(ra)

80000bb8 <inst_175>:
80000bb8:	75d5                	lui	a1,0xffff5
80000bba:	afc58593          	add	a1,a1,-1284 # ffff4afc <immx+0x452e702c>
80000bbe:	4515                	li	a0,5
80000bc0:	952e                	add	a0,a0,a1
80000bc2:	26a0a023          	sw	a0,608(ra)

80000bc6 <inst_176>:
80000bc6:	65ad                	lui	a1,0xb
80000bc8:	50458593          	add	a1,a1,1284 # b504 <offset+0xb43c>
80000bcc:	4515                	li	a0,5
80000bce:	952e                	add	a0,a0,a1
80000bd0:	26a0a223          	sw	a0,612(ra)

80000bd4 <inst_177>:
80000bd4:	4589                	li	a1,2
80000bd6:	4515                	li	a0,5
80000bd8:	952e                	add	a0,a0,a1
80000bda:	26a0a423          	sw	a0,616(ra)

80000bde <inst_178>:
80000bde:	555555b7          	lui	a1,0x55555
80000be2:	55458593          	add	a1,a1,1364 # 55555554 <absimm+0x10263025>
80000be6:	4515                	li	a0,5
80000be8:	952e                	add	a0,a0,a1
80000bea:	26a0a623          	sw	a0,620(ra)

80000bee <inst_179>:
80000bee:	4581                	li	a1,0
80000bf0:	4515                	li	a0,5
80000bf2:	952e                	add	a0,a0,a1
80000bf4:	26a0a823          	sw	a0,624(ra)

80000bf8 <inst_180>:
80000bf8:	4591                	li	a1,4
80000bfa:	4515                	li	a0,5
80000bfc:	952e                	add	a0,a0,a1
80000bfe:	26a0aa23          	sw	a0,628(ra)

80000c02 <inst_181>:
80000c02:	333335b7          	lui	a1,0x33333
80000c06:	33258593          	add	a1,a1,818 # 33333332 <offset+0x3333326a>
80000c0a:	4515                	li	a0,5
80000c0c:	952e                	add	a0,a0,a1
80000c0e:	26a0ac23          	sw	a0,632(ra)

80000c12 <inst_182>:
80000c12:	666665b7          	lui	a1,0x66666
80000c16:	66558593          	add	a1,a1,1637 # 66666665 <absimm+0x21374136>
80000c1a:	4515                	li	a0,5
80000c1c:	952e                	add	a0,a0,a1
80000c1e:	26a0ae23          	sw	a0,636(ra)

80000c22 <inst_183>:
80000c22:	65ad                	lui	a1,0xb
80000c24:	50358593          	add	a1,a1,1283 # b503 <offset+0xb43b>
80000c28:	4515                	li	a0,5
80000c2a:	952e                	add	a0,a0,a1
80000c2c:	28a0a023          	sw	a0,640(ra)

80000c30 <inst_184>:
80000c30:	555555b7          	lui	a1,0x55555
80000c34:	55658593          	add	a1,a1,1366 # 55555556 <absimm+0x10263027>
80000c38:	4515                	li	a0,5
80000c3a:	952e                	add	a0,a0,a1
80000c3c:	28a0a223          	sw	a0,644(ra)

80000c40 <inst_185>:
80000c40:	aaaab5b7          	lui	a1,0xaaaab
80000c44:	aab58593          	add	a1,a1,-1365 # aaaaaaab <_end+0x2aaa506b>
80000c48:	4515                	li	a0,5
80000c4a:	952e                	add	a0,a0,a1
80000c4c:	28a0a423          	sw	a0,648(ra)

80000c50 <inst_186>:
80000c50:	4599                	li	a1,6
80000c52:	4515                	li	a0,5
80000c54:	952e                	add	a0,a0,a1
80000c56:	28a0a623          	sw	a0,652(ra)

80000c5a <inst_187>:
80000c5a:	333335b7          	lui	a1,0x33333
80000c5e:	33458593          	add	a1,a1,820 # 33333334 <offset+0x3333326c>
80000c62:	4515                	li	a0,5
80000c64:	952e                	add	a0,a0,a1
80000c66:	28a0a823          	sw	a0,656(ra)

80000c6a <inst_188>:
80000c6a:	666665b7          	lui	a1,0x66666
80000c6e:	66758593          	add	a1,a1,1639 # 66666667 <absimm+0x21374138>
80000c72:	4515                	li	a0,5
80000c74:	952e                	add	a0,a0,a1
80000c76:	28a0aa23          	sw	a0,660(ra)

80000c7a <inst_189>:
80000c7a:	75d5                	lui	a1,0xffff5
80000c7c:	afd58593          	add	a1,a1,-1283 # ffff4afd <immx+0x452e702d>
80000c80:	4515                	li	a0,5
80000c82:	952e                	add	a0,a0,a1
80000c84:	28a0ac23          	sw	a0,664(ra)

80000c88 <inst_190>:
80000c88:	65ad                	lui	a1,0xb
80000c8a:	50558593          	add	a1,a1,1285 # b505 <offset+0xb43d>
80000c8e:	4515                	li	a0,5
80000c90:	952e                	add	a0,a0,a1
80000c92:	28a0ae23          	sw	a0,668(ra)

80000c96 <inst_191>:
80000c96:	458d                	li	a1,3
80000c98:	33333537          	lui	a0,0x33333
80000c9c:	33350513          	add	a0,a0,819 # 33333333 <offset+0x3333326b>
80000ca0:	952e                	add	a0,a0,a1
80000ca2:	2aa0a023          	sw	a0,672(ra)

80000ca6 <inst_192>:
80000ca6:	555555b7          	lui	a1,0x55555
80000caa:	55558593          	add	a1,a1,1365 # 55555555 <absimm+0x10263026>
80000cae:	33333537          	lui	a0,0x33333
80000cb2:	33350513          	add	a0,a0,819 # 33333333 <offset+0x3333326b>
80000cb6:	952e                	add	a0,a0,a1
80000cb8:	2aa0a223          	sw	a0,676(ra)

80000cbc <inst_193>:
80000cbc:	aaaab5b7          	lui	a1,0xaaaab
80000cc0:	aaa58593          	add	a1,a1,-1366 # aaaaaaaa <_end+0x2aaa506a>
80000cc4:	33333537          	lui	a0,0x33333
80000cc8:	33350513          	add	a0,a0,819 # 33333333 <offset+0x3333326b>
80000ccc:	952e                	add	a0,a0,a1
80000cce:	2aa0a423          	sw	a0,680(ra)

80000cd2 <inst_194>:
80000cd2:	4595                	li	a1,5
80000cd4:	33333537          	lui	a0,0x33333
80000cd8:	33350513          	add	a0,a0,819 # 33333333 <offset+0x3333326b>
80000cdc:	952e                	add	a0,a0,a1
80000cde:	2aa0a623          	sw	a0,684(ra)

80000ce2 <inst_195>:
80000ce2:	333335b7          	lui	a1,0x33333
80000ce6:	33358593          	add	a1,a1,819 # 33333333 <offset+0x3333326b>
80000cea:	33333537          	lui	a0,0x33333
80000cee:	33350513          	add	a0,a0,819 # 33333333 <offset+0x3333326b>
80000cf2:	952e                	add	a0,a0,a1
80000cf4:	2aa0a823          	sw	a0,688(ra)

80000cf8 <inst_196>:
80000cf8:	666665b7          	lui	a1,0x66666
80000cfc:	66658593          	add	a1,a1,1638 # 66666666 <absimm+0x21374137>
80000d00:	33333537          	lui	a0,0x33333
80000d04:	33350513          	add	a0,a0,819 # 33333333 <offset+0x3333326b>
80000d08:	952e                	add	a0,a0,a1
80000d0a:	2aa0aa23          	sw	a0,692(ra)

80000d0e <inst_197>:
80000d0e:	75d5                	lui	a1,0xffff5
80000d10:	afc58593          	add	a1,a1,-1284 # ffff4afc <immx+0x452e702c>
80000d14:	33333537          	lui	a0,0x33333
80000d18:	33350513          	add	a0,a0,819 # 33333333 <offset+0x3333326b>
80000d1c:	952e                	add	a0,a0,a1
80000d1e:	2aa0ac23          	sw	a0,696(ra)

80000d22 <inst_198>:
80000d22:	65ad                	lui	a1,0xb
80000d24:	50458593          	add	a1,a1,1284 # b504 <offset+0xb43c>
80000d28:	33333537          	lui	a0,0x33333
80000d2c:	33350513          	add	a0,a0,819 # 33333333 <offset+0x3333326b>
80000d30:	952e                	add	a0,a0,a1
80000d32:	2aa0ae23          	sw	a0,700(ra)

80000d36 <inst_199>:
80000d36:	4589                	li	a1,2
80000d38:	33333537          	lui	a0,0x33333
80000d3c:	33350513          	add	a0,a0,819 # 33333333 <offset+0x3333326b>
80000d40:	952e                	add	a0,a0,a1
80000d42:	2ca0a023          	sw	a0,704(ra)

80000d46 <inst_200>:
80000d46:	555555b7          	lui	a1,0x55555
80000d4a:	55458593          	add	a1,a1,1364 # 55555554 <absimm+0x10263025>
80000d4e:	33333537          	lui	a0,0x33333
80000d52:	33350513          	add	a0,a0,819 # 33333333 <offset+0x3333326b>
80000d56:	952e                	add	a0,a0,a1
80000d58:	2ca0a223          	sw	a0,708(ra)

80000d5c <inst_201>:
80000d5c:	4581                	li	a1,0
80000d5e:	33333537          	lui	a0,0x33333
80000d62:	33350513          	add	a0,a0,819 # 33333333 <offset+0x3333326b>
80000d66:	952e                	add	a0,a0,a1
80000d68:	2ca0a423          	sw	a0,712(ra)

80000d6c <inst_202>:
80000d6c:	333335b7          	lui	a1,0x33333
80000d70:	33258593          	add	a1,a1,818 # 33333332 <offset+0x3333326a>
80000d74:	33333537          	lui	a0,0x33333
80000d78:	33350513          	add	a0,a0,819 # 33333333 <offset+0x3333326b>
80000d7c:	952e                	add	a0,a0,a1
80000d7e:	2ca0a623          	sw	a0,716(ra)

80000d82 <inst_203>:
80000d82:	666665b7          	lui	a1,0x66666
80000d86:	66558593          	add	a1,a1,1637 # 66666665 <absimm+0x21374136>
80000d8a:	33333537          	lui	a0,0x33333
80000d8e:	33350513          	add	a0,a0,819 # 33333333 <offset+0x3333326b>
80000d92:	952e                	add	a0,a0,a1
80000d94:	2ca0a823          	sw	a0,720(ra)

80000d98 <inst_204>:
80000d98:	65ad                	lui	a1,0xb
80000d9a:	50358593          	add	a1,a1,1283 # b503 <offset+0xb43b>
80000d9e:	33333537          	lui	a0,0x33333
80000da2:	33350513          	add	a0,a0,819 # 33333333 <offset+0x3333326b>
80000da6:	952e                	add	a0,a0,a1
80000da8:	2ca0aa23          	sw	a0,724(ra)

80000dac <inst_205>:
80000dac:	555555b7          	lui	a1,0x55555
80000db0:	55658593          	add	a1,a1,1366 # 55555556 <absimm+0x10263027>
80000db4:	33333537          	lui	a0,0x33333
80000db8:	33350513          	add	a0,a0,819 # 33333333 <offset+0x3333326b>
80000dbc:	952e                	add	a0,a0,a1
80000dbe:	2ca0ac23          	sw	a0,728(ra)

80000dc2 <inst_206>:
80000dc2:	aaaab5b7          	lui	a1,0xaaaab
80000dc6:	aab58593          	add	a1,a1,-1365 # aaaaaaab <_end+0x2aaa506b>
80000dca:	33333537          	lui	a0,0x33333
80000dce:	33350513          	add	a0,a0,819 # 33333333 <offset+0x3333326b>
80000dd2:	952e                	add	a0,a0,a1
80000dd4:	2ca0ae23          	sw	a0,732(ra)

80000dd8 <inst_207>:
80000dd8:	4599                	li	a1,6
80000dda:	33333537          	lui	a0,0x33333
80000dde:	33350513          	add	a0,a0,819 # 33333333 <offset+0x3333326b>
80000de2:	952e                	add	a0,a0,a1
80000de4:	2ea0a023          	sw	a0,736(ra)

80000de8 <inst_208>:
80000de8:	333335b7          	lui	a1,0x33333
80000dec:	33458593          	add	a1,a1,820 # 33333334 <offset+0x3333326c>
80000df0:	33333537          	lui	a0,0x33333
80000df4:	33350513          	add	a0,a0,819 # 33333333 <offset+0x3333326b>
80000df8:	952e                	add	a0,a0,a1
80000dfa:	2ea0a223          	sw	a0,740(ra)

80000dfe <inst_209>:
80000dfe:	666665b7          	lui	a1,0x66666
80000e02:	66758593          	add	a1,a1,1639 # 66666667 <absimm+0x21374138>
80000e06:	33333537          	lui	a0,0x33333
80000e0a:	33350513          	add	a0,a0,819 # 33333333 <offset+0x3333326b>
80000e0e:	952e                	add	a0,a0,a1
80000e10:	2ea0a423          	sw	a0,744(ra)

80000e14 <inst_210>:
80000e14:	75d5                	lui	a1,0xffff5
80000e16:	afd58593          	add	a1,a1,-1283 # ffff4afd <immx+0x452e702d>
80000e1a:	33333537          	lui	a0,0x33333
80000e1e:	33350513          	add	a0,a0,819 # 33333333 <offset+0x3333326b>
80000e22:	952e                	add	a0,a0,a1
80000e24:	2ea0a623          	sw	a0,748(ra)

80000e28 <inst_211>:
80000e28:	65ad                	lui	a1,0xb
80000e2a:	50558593          	add	a1,a1,1285 # b505 <offset+0xb43d>
80000e2e:	33333537          	lui	a0,0x33333
80000e32:	33350513          	add	a0,a0,819 # 33333333 <offset+0x3333326b>
80000e36:	952e                	add	a0,a0,a1
80000e38:	2ea0a823          	sw	a0,752(ra)

80000e3c <inst_212>:
80000e3c:	458d                	li	a1,3
80000e3e:	66666537          	lui	a0,0x66666
80000e42:	66650513          	add	a0,a0,1638 # 66666666 <absimm+0x21374137>
80000e46:	952e                	add	a0,a0,a1
80000e48:	2ea0aa23          	sw	a0,756(ra)

80000e4c <inst_213>:
80000e4c:	555555b7          	lui	a1,0x55555
80000e50:	55558593          	add	a1,a1,1365 # 55555555 <absimm+0x10263026>
80000e54:	66666537          	lui	a0,0x66666
80000e58:	66650513          	add	a0,a0,1638 # 66666666 <absimm+0x21374137>
80000e5c:	952e                	add	a0,a0,a1
80000e5e:	2ea0ac23          	sw	a0,760(ra)

80000e62 <inst_214>:
80000e62:	aaaab5b7          	lui	a1,0xaaaab
80000e66:	aaa58593          	add	a1,a1,-1366 # aaaaaaaa <_end+0x2aaa506a>
80000e6a:	66666537          	lui	a0,0x66666
80000e6e:	66650513          	add	a0,a0,1638 # 66666666 <absimm+0x21374137>
80000e72:	952e                	add	a0,a0,a1
80000e74:	2ea0ae23          	sw	a0,764(ra)

80000e78 <inst_215>:
80000e78:	4595                	li	a1,5
80000e7a:	66666537          	lui	a0,0x66666
80000e7e:	66650513          	add	a0,a0,1638 # 66666666 <absimm+0x21374137>
80000e82:	952e                	add	a0,a0,a1
80000e84:	30a0a023          	sw	a0,768(ra)

80000e88 <inst_216>:
80000e88:	333335b7          	lui	a1,0x33333
80000e8c:	33358593          	add	a1,a1,819 # 33333333 <offset+0x3333326b>
80000e90:	66666537          	lui	a0,0x66666
80000e94:	66650513          	add	a0,a0,1638 # 66666666 <absimm+0x21374137>
80000e98:	952e                	add	a0,a0,a1
80000e9a:	30a0a223          	sw	a0,772(ra)

80000e9e <inst_217>:
80000e9e:	666665b7          	lui	a1,0x66666
80000ea2:	66658593          	add	a1,a1,1638 # 66666666 <absimm+0x21374137>
80000ea6:	66666537          	lui	a0,0x66666
80000eaa:	66650513          	add	a0,a0,1638 # 66666666 <absimm+0x21374137>
80000eae:	952e                	add	a0,a0,a1
80000eb0:	30a0a423          	sw	a0,776(ra)

80000eb4 <inst_218>:
80000eb4:	75d5                	lui	a1,0xffff5
80000eb6:	afc58593          	add	a1,a1,-1284 # ffff4afc <immx+0x452e702c>
80000eba:	66666537          	lui	a0,0x66666
80000ebe:	66650513          	add	a0,a0,1638 # 66666666 <absimm+0x21374137>
80000ec2:	952e                	add	a0,a0,a1
80000ec4:	30a0a623          	sw	a0,780(ra)

80000ec8 <inst_219>:
80000ec8:	65ad                	lui	a1,0xb
80000eca:	50458593          	add	a1,a1,1284 # b504 <offset+0xb43c>
80000ece:	66666537          	lui	a0,0x66666
80000ed2:	66650513          	add	a0,a0,1638 # 66666666 <absimm+0x21374137>
80000ed6:	952e                	add	a0,a0,a1
80000ed8:	30a0a823          	sw	a0,784(ra)

80000edc <inst_220>:
80000edc:	4589                	li	a1,2
80000ede:	66666537          	lui	a0,0x66666
80000ee2:	66650513          	add	a0,a0,1638 # 66666666 <absimm+0x21374137>
80000ee6:	952e                	add	a0,a0,a1
80000ee8:	30a0aa23          	sw	a0,788(ra)

80000eec <inst_221>:
80000eec:	555555b7          	lui	a1,0x55555
80000ef0:	55458593          	add	a1,a1,1364 # 55555554 <absimm+0x10263025>
80000ef4:	66666537          	lui	a0,0x66666
80000ef8:	66650513          	add	a0,a0,1638 # 66666666 <absimm+0x21374137>
80000efc:	952e                	add	a0,a0,a1
80000efe:	30a0ac23          	sw	a0,792(ra)

80000f02 <inst_222>:
80000f02:	4581                	li	a1,0
80000f04:	66666537          	lui	a0,0x66666
80000f08:	66650513          	add	a0,a0,1638 # 66666666 <absimm+0x21374137>
80000f0c:	952e                	add	a0,a0,a1
80000f0e:	30a0ae23          	sw	a0,796(ra)

80000f12 <inst_223>:
80000f12:	4591                	li	a1,4
80000f14:	66666537          	lui	a0,0x66666
80000f18:	66650513          	add	a0,a0,1638 # 66666666 <absimm+0x21374137>
80000f1c:	952e                	add	a0,a0,a1
80000f1e:	32a0a023          	sw	a0,800(ra)

80000f22 <inst_224>:
80000f22:	333335b7          	lui	a1,0x33333
80000f26:	33258593          	add	a1,a1,818 # 33333332 <offset+0x3333326a>
80000f2a:	66666537          	lui	a0,0x66666
80000f2e:	66650513          	add	a0,a0,1638 # 66666666 <absimm+0x21374137>
80000f32:	952e                	add	a0,a0,a1
80000f34:	32a0a223          	sw	a0,804(ra)

80000f38 <inst_225>:
80000f38:	666665b7          	lui	a1,0x66666
80000f3c:	66558593          	add	a1,a1,1637 # 66666665 <absimm+0x21374136>
80000f40:	66666537          	lui	a0,0x66666
80000f44:	66650513          	add	a0,a0,1638 # 66666666 <absimm+0x21374137>
80000f48:	952e                	add	a0,a0,a1
80000f4a:	32a0a423          	sw	a0,808(ra)

80000f4e <inst_226>:
80000f4e:	65ad                	lui	a1,0xb
80000f50:	50358593          	add	a1,a1,1283 # b503 <offset+0xb43b>
80000f54:	66666537          	lui	a0,0x66666
80000f58:	66650513          	add	a0,a0,1638 # 66666666 <absimm+0x21374137>
80000f5c:	952e                	add	a0,a0,a1
80000f5e:	32a0a623          	sw	a0,812(ra)

80000f62 <inst_227>:
80000f62:	555555b7          	lui	a1,0x55555
80000f66:	55658593          	add	a1,a1,1366 # 55555556 <absimm+0x10263027>
80000f6a:	66666537          	lui	a0,0x66666
80000f6e:	66650513          	add	a0,a0,1638 # 66666666 <absimm+0x21374137>
80000f72:	952e                	add	a0,a0,a1
80000f74:	32a0a823          	sw	a0,816(ra)

80000f78 <inst_228>:
80000f78:	aaaab5b7          	lui	a1,0xaaaab
80000f7c:	aab58593          	add	a1,a1,-1365 # aaaaaaab <_end+0x2aaa506b>
80000f80:	66666537          	lui	a0,0x66666
80000f84:	66650513          	add	a0,a0,1638 # 66666666 <absimm+0x21374137>
80000f88:	952e                	add	a0,a0,a1
80000f8a:	32a0aa23          	sw	a0,820(ra)

80000f8e <inst_229>:
80000f8e:	4599                	li	a1,6
80000f90:	66666537          	lui	a0,0x66666
80000f94:	66650513          	add	a0,a0,1638 # 66666666 <absimm+0x21374137>
80000f98:	952e                	add	a0,a0,a1
80000f9a:	32a0ac23          	sw	a0,824(ra)

80000f9e <inst_230>:
80000f9e:	333335b7          	lui	a1,0x33333
80000fa2:	33458593          	add	a1,a1,820 # 33333334 <offset+0x3333326c>
80000fa6:	66666537          	lui	a0,0x66666
80000faa:	66650513          	add	a0,a0,1638 # 66666666 <absimm+0x21374137>
80000fae:	952e                	add	a0,a0,a1
80000fb0:	32a0ae23          	sw	a0,828(ra)

80000fb4 <inst_231>:
80000fb4:	666665b7          	lui	a1,0x66666
80000fb8:	66758593          	add	a1,a1,1639 # 66666667 <absimm+0x21374138>
80000fbc:	66666537          	lui	a0,0x66666
80000fc0:	66650513          	add	a0,a0,1638 # 66666666 <absimm+0x21374137>
80000fc4:	952e                	add	a0,a0,a1
80000fc6:	34a0a023          	sw	a0,832(ra)

80000fca <inst_232>:
80000fca:	75d5                	lui	a1,0xffff5
80000fcc:	afd58593          	add	a1,a1,-1283 # ffff4afd <immx+0x452e702d>
80000fd0:	66666537          	lui	a0,0x66666
80000fd4:	66650513          	add	a0,a0,1638 # 66666666 <absimm+0x21374137>
80000fd8:	952e                	add	a0,a0,a1
80000fda:	34a0a223          	sw	a0,836(ra)

80000fde <inst_233>:
80000fde:	65ad                	lui	a1,0xb
80000fe0:	50558593          	add	a1,a1,1285 # b505 <offset+0xb43d>
80000fe4:	66666537          	lui	a0,0x66666
80000fe8:	66650513          	add	a0,a0,1638 # 66666666 <absimm+0x21374137>
80000fec:	952e                	add	a0,a0,a1
80000fee:	34a0a423          	sw	a0,840(ra)

80000ff2 <inst_234>:
80000ff2:	458d                	li	a1,3
80000ff4:	7555                	lui	a0,0xffff5
80000ff6:	afc50513          	add	a0,a0,-1284 # ffff4afc <immx+0x452e702c>
80000ffa:	952e                	add	a0,a0,a1
80000ffc:	34a0a623          	sw	a0,844(ra)

80001000 <inst_235>:
80001000:	555555b7          	lui	a1,0x55555
80001004:	55558593          	add	a1,a1,1365 # 55555555 <absimm+0x10263026>
80001008:	7555                	lui	a0,0xffff5
8000100a:	afc50513          	add	a0,a0,-1284 # ffff4afc <immx+0x452e702c>
8000100e:	952e                	add	a0,a0,a1
80001010:	34a0a823          	sw	a0,848(ra)

80001014 <inst_236>:
80001014:	4595                	li	a1,5
80001016:	7555                	lui	a0,0xffff5
80001018:	afc50513          	add	a0,a0,-1284 # ffff4afc <immx+0x452e702c>
8000101c:	952e                	add	a0,a0,a1
8000101e:	34a0aa23          	sw	a0,852(ra)

80001022 <inst_237>:
80001022:	333335b7          	lui	a1,0x33333
80001026:	33358593          	add	a1,a1,819 # 33333333 <offset+0x3333326b>
8000102a:	7555                	lui	a0,0xffff5
8000102c:	afc50513          	add	a0,a0,-1284 # ffff4afc <immx+0x452e702c>
80001030:	952e                	add	a0,a0,a1
80001032:	34a0ac23          	sw	a0,856(ra)

80001036 <inst_238>:
80001036:	666665b7          	lui	a1,0x66666
8000103a:	66658593          	add	a1,a1,1638 # 66666666 <absimm+0x21374137>
8000103e:	7555                	lui	a0,0xffff5
80001040:	afc50513          	add	a0,a0,-1284 # ffff4afc <immx+0x452e702c>
80001044:	952e                	add	a0,a0,a1
80001046:	34a0ae23          	sw	a0,860(ra)

8000104a <inst_239>:
8000104a:	75d5                	lui	a1,0xffff5
8000104c:	afc58593          	add	a1,a1,-1284 # ffff4afc <immx+0x452e702c>
80001050:	7555                	lui	a0,0xffff5
80001052:	afc50513          	add	a0,a0,-1284 # ffff4afc <immx+0x452e702c>
80001056:	952e                	add	a0,a0,a1
80001058:	36a0a023          	sw	a0,864(ra)

8000105c <inst_240>:
8000105c:	65ad                	lui	a1,0xb
8000105e:	50458593          	add	a1,a1,1284 # b504 <offset+0xb43c>
80001062:	7555                	lui	a0,0xffff5
80001064:	afc50513          	add	a0,a0,-1284 # ffff4afc <immx+0x452e702c>
80001068:	952e                	add	a0,a0,a1
8000106a:	36a0a223          	sw	a0,868(ra)

8000106e <inst_241>:
8000106e:	4589                	li	a1,2
80001070:	7555                	lui	a0,0xffff5
80001072:	afc50513          	add	a0,a0,-1284 # ffff4afc <immx+0x452e702c>
80001076:	952e                	add	a0,a0,a1
80001078:	36a0a423          	sw	a0,872(ra)

8000107c <inst_242>:
8000107c:	555555b7          	lui	a1,0x55555
80001080:	55458593          	add	a1,a1,1364 # 55555554 <absimm+0x10263025>
80001084:	7555                	lui	a0,0xffff5
80001086:	afc50513          	add	a0,a0,-1284 # ffff4afc <immx+0x452e702c>
8000108a:	952e                	add	a0,a0,a1
8000108c:	36a0a623          	sw	a0,876(ra)

80001090 <inst_243>:
80001090:	4581                	li	a1,0
80001092:	7555                	lui	a0,0xffff5
80001094:	afc50513          	add	a0,a0,-1284 # ffff4afc <immx+0x452e702c>
80001098:	952e                	add	a0,a0,a1
8000109a:	36a0a823          	sw	a0,880(ra)

8000109e <inst_244>:
8000109e:	4591                	li	a1,4
800010a0:	7555                	lui	a0,0xffff5
800010a2:	afc50513          	add	a0,a0,-1284 # ffff4afc <immx+0x452e702c>
800010a6:	952e                	add	a0,a0,a1
800010a8:	36a0aa23          	sw	a0,884(ra)

800010ac <inst_245>:
800010ac:	333335b7          	lui	a1,0x33333
800010b0:	33258593          	add	a1,a1,818 # 33333332 <offset+0x3333326a>
800010b4:	7555                	lui	a0,0xffff5
800010b6:	afc50513          	add	a0,a0,-1284 # ffff4afc <immx+0x452e702c>
800010ba:	952e                	add	a0,a0,a1
800010bc:	36a0ac23          	sw	a0,888(ra)

800010c0 <inst_246>:
800010c0:	666665b7          	lui	a1,0x66666
800010c4:	66558593          	add	a1,a1,1637 # 66666665 <absimm+0x21374136>
800010c8:	7555                	lui	a0,0xffff5
800010ca:	afc50513          	add	a0,a0,-1284 # ffff4afc <immx+0x452e702c>
800010ce:	952e                	add	a0,a0,a1
800010d0:	36a0ae23          	sw	a0,892(ra)

800010d4 <inst_247>:
800010d4:	65ad                	lui	a1,0xb
800010d6:	50358593          	add	a1,a1,1283 # b503 <offset+0xb43b>
800010da:	7555                	lui	a0,0xffff5
800010dc:	afc50513          	add	a0,a0,-1284 # ffff4afc <immx+0x452e702c>
800010e0:	952e                	add	a0,a0,a1
800010e2:	38a0a023          	sw	a0,896(ra)

800010e6 <inst_248>:
800010e6:	555555b7          	lui	a1,0x55555
800010ea:	55658593          	add	a1,a1,1366 # 55555556 <absimm+0x10263027>
800010ee:	7555                	lui	a0,0xffff5
800010f0:	afc50513          	add	a0,a0,-1284 # ffff4afc <immx+0x452e702c>
800010f4:	952e                	add	a0,a0,a1
800010f6:	38a0a223          	sw	a0,900(ra)

800010fa <inst_249>:
800010fa:	aaaab5b7          	lui	a1,0xaaaab
800010fe:	aab58593          	add	a1,a1,-1365 # aaaaaaab <_end+0x2aaa506b>
80001102:	7555                	lui	a0,0xffff5
80001104:	afc50513          	add	a0,a0,-1284 # ffff4afc <immx+0x452e702c>
80001108:	952e                	add	a0,a0,a1
8000110a:	38a0a423          	sw	a0,904(ra)

8000110e <inst_250>:
8000110e:	4599                	li	a1,6
80001110:	7555                	lui	a0,0xffff5
80001112:	afc50513          	add	a0,a0,-1284 # ffff4afc <immx+0x452e702c>
80001116:	952e                	add	a0,a0,a1
80001118:	38a0a623          	sw	a0,908(ra)

8000111c <inst_251>:
8000111c:	333335b7          	lui	a1,0x33333
80001120:	33458593          	add	a1,a1,820 # 33333334 <offset+0x3333326c>
80001124:	7555                	lui	a0,0xffff5
80001126:	afc50513          	add	a0,a0,-1284 # ffff4afc <immx+0x452e702c>
8000112a:	952e                	add	a0,a0,a1
8000112c:	38a0a823          	sw	a0,912(ra)

80001130 <inst_252>:
80001130:	666665b7          	lui	a1,0x66666
80001134:	66758593          	add	a1,a1,1639 # 66666667 <absimm+0x21374138>
80001138:	7555                	lui	a0,0xffff5
8000113a:	afc50513          	add	a0,a0,-1284 # ffff4afc <immx+0x452e702c>
8000113e:	952e                	add	a0,a0,a1
80001140:	38a0aa23          	sw	a0,916(ra)

80001144 <inst_253>:
80001144:	75d5                	lui	a1,0xffff5
80001146:	afd58593          	add	a1,a1,-1283 # ffff4afd <immx+0x452e702d>
8000114a:	7555                	lui	a0,0xffff5
8000114c:	afc50513          	add	a0,a0,-1284 # ffff4afc <immx+0x452e702c>
80001150:	952e                	add	a0,a0,a1
80001152:	38a0ac23          	sw	a0,920(ra)

80001156 <inst_254>:
80001156:	65ad                	lui	a1,0xb
80001158:	50558593          	add	a1,a1,1285 # b505 <offset+0xb43d>
8000115c:	7555                	lui	a0,0xffff5
8000115e:	afc50513          	add	a0,a0,-1284 # ffff4afc <immx+0x452e702c>
80001162:	952e                	add	a0,a0,a1
80001164:	38a0ae23          	sw	a0,924(ra)

80001168 <inst_255>:
80001168:	458d                	li	a1,3
8000116a:	652d                	lui	a0,0xb
8000116c:	50450513          	add	a0,a0,1284 # b504 <offset+0xb43c>
80001170:	952e                	add	a0,a0,a1
80001172:	3aa0a023          	sw	a0,928(ra)

80001176 <inst_256>:
80001176:	555555b7          	lui	a1,0x55555
8000117a:	55558593          	add	a1,a1,1365 # 55555555 <absimm+0x10263026>
8000117e:	652d                	lui	a0,0xb
80001180:	50450513          	add	a0,a0,1284 # b504 <offset+0xb43c>
80001184:	952e                	add	a0,a0,a1
80001186:	3aa0a223          	sw	a0,932(ra)

8000118a <inst_257>:
8000118a:	aaaab5b7          	lui	a1,0xaaaab
8000118e:	aaa58593          	add	a1,a1,-1366 # aaaaaaaa <_end+0x2aaa506a>
80001192:	652d                	lui	a0,0xb
80001194:	50450513          	add	a0,a0,1284 # b504 <offset+0xb43c>
80001198:	952e                	add	a0,a0,a1
8000119a:	3aa0a423          	sw	a0,936(ra)

8000119e <inst_258>:
8000119e:	4595                	li	a1,5
800011a0:	652d                	lui	a0,0xb
800011a2:	50450513          	add	a0,a0,1284 # b504 <offset+0xb43c>
800011a6:	952e                	add	a0,a0,a1
800011a8:	3aa0a623          	sw	a0,940(ra)

800011ac <inst_259>:
800011ac:	333335b7          	lui	a1,0x33333
800011b0:	33358593          	add	a1,a1,819 # 33333333 <offset+0x3333326b>
800011b4:	652d                	lui	a0,0xb
800011b6:	50450513          	add	a0,a0,1284 # b504 <offset+0xb43c>
800011ba:	952e                	add	a0,a0,a1
800011bc:	3aa0a823          	sw	a0,944(ra)

800011c0 <inst_260>:
800011c0:	666665b7          	lui	a1,0x66666
800011c4:	66658593          	add	a1,a1,1638 # 66666666 <absimm+0x21374137>
800011c8:	652d                	lui	a0,0xb
800011ca:	50450513          	add	a0,a0,1284 # b504 <offset+0xb43c>
800011ce:	952e                	add	a0,a0,a1
800011d0:	3aa0aa23          	sw	a0,948(ra)

800011d4 <inst_261>:
800011d4:	75d5                	lui	a1,0xffff5
800011d6:	afc58593          	add	a1,a1,-1284 # ffff4afc <immx+0x452e702c>
800011da:	652d                	lui	a0,0xb
800011dc:	50450513          	add	a0,a0,1284 # b504 <offset+0xb43c>
800011e0:	952e                	add	a0,a0,a1
800011e2:	3aa0ac23          	sw	a0,952(ra)

800011e6 <inst_262>:
800011e6:	65ad                	lui	a1,0xb
800011e8:	50458593          	add	a1,a1,1284 # b504 <offset+0xb43c>
800011ec:	652d                	lui	a0,0xb
800011ee:	50450513          	add	a0,a0,1284 # b504 <offset+0xb43c>
800011f2:	952e                	add	a0,a0,a1
800011f4:	3aa0ae23          	sw	a0,956(ra)

800011f8 <inst_263>:
800011f8:	4589                	li	a1,2
800011fa:	652d                	lui	a0,0xb
800011fc:	50450513          	add	a0,a0,1284 # b504 <offset+0xb43c>
80001200:	952e                	add	a0,a0,a1
80001202:	3ca0a023          	sw	a0,960(ra)

80001206 <inst_264>:
80001206:	555555b7          	lui	a1,0x55555
8000120a:	55458593          	add	a1,a1,1364 # 55555554 <absimm+0x10263025>
8000120e:	652d                	lui	a0,0xb
80001210:	50450513          	add	a0,a0,1284 # b504 <offset+0xb43c>
80001214:	952e                	add	a0,a0,a1
80001216:	3ca0a223          	sw	a0,964(ra)

8000121a <inst_265>:
8000121a:	4581                	li	a1,0
8000121c:	652d                	lui	a0,0xb
8000121e:	50450513          	add	a0,a0,1284 # b504 <offset+0xb43c>
80001222:	952e                	add	a0,a0,a1
80001224:	3ca0a423          	sw	a0,968(ra)

80001228 <inst_266>:
80001228:	4591                	li	a1,4
8000122a:	652d                	lui	a0,0xb
8000122c:	50450513          	add	a0,a0,1284 # b504 <offset+0xb43c>
80001230:	952e                	add	a0,a0,a1
80001232:	3ca0a623          	sw	a0,972(ra)

80001236 <inst_267>:
80001236:	333335b7          	lui	a1,0x33333
8000123a:	33258593          	add	a1,a1,818 # 33333332 <offset+0x3333326a>
8000123e:	652d                	lui	a0,0xb
80001240:	50450513          	add	a0,a0,1284 # b504 <offset+0xb43c>
80001244:	952e                	add	a0,a0,a1
80001246:	3ca0a823          	sw	a0,976(ra)

8000124a <inst_268>:
8000124a:	666665b7          	lui	a1,0x66666
8000124e:	66558593          	add	a1,a1,1637 # 66666665 <absimm+0x21374136>
80001252:	652d                	lui	a0,0xb
80001254:	50450513          	add	a0,a0,1284 # b504 <offset+0xb43c>
80001258:	952e                	add	a0,a0,a1
8000125a:	3ca0aa23          	sw	a0,980(ra)

8000125e <inst_269>:
8000125e:	65ad                	lui	a1,0xb
80001260:	50358593          	add	a1,a1,1283 # b503 <offset+0xb43b>
80001264:	652d                	lui	a0,0xb
80001266:	50450513          	add	a0,a0,1284 # b504 <offset+0xb43c>
8000126a:	952e                	add	a0,a0,a1
8000126c:	3ca0ac23          	sw	a0,984(ra)

80001270 <inst_270>:
80001270:	555555b7          	lui	a1,0x55555
80001274:	55658593          	add	a1,a1,1366 # 55555556 <absimm+0x10263027>
80001278:	652d                	lui	a0,0xb
8000127a:	50450513          	add	a0,a0,1284 # b504 <offset+0xb43c>
8000127e:	952e                	add	a0,a0,a1
80001280:	3ca0ae23          	sw	a0,988(ra)

80001284 <inst_271>:
80001284:	aaaab5b7          	lui	a1,0xaaaab
80001288:	aab58593          	add	a1,a1,-1365 # aaaaaaab <_end+0x2aaa506b>
8000128c:	652d                	lui	a0,0xb
8000128e:	50450513          	add	a0,a0,1284 # b504 <offset+0xb43c>
80001292:	952e                	add	a0,a0,a1
80001294:	3ea0a023          	sw	a0,992(ra)

80001298 <inst_272>:
80001298:	4599                	li	a1,6
8000129a:	652d                	lui	a0,0xb
8000129c:	50450513          	add	a0,a0,1284 # b504 <offset+0xb43c>
800012a0:	952e                	add	a0,a0,a1
800012a2:	3ea0a223          	sw	a0,996(ra)

800012a6 <inst_273>:
800012a6:	333335b7          	lui	a1,0x33333
800012aa:	33458593          	add	a1,a1,820 # 33333334 <offset+0x3333326c>
800012ae:	652d                	lui	a0,0xb
800012b0:	50450513          	add	a0,a0,1284 # b504 <offset+0xb43c>
800012b4:	952e                	add	a0,a0,a1
800012b6:	3ea0a423          	sw	a0,1000(ra)

800012ba <inst_274>:
800012ba:	666665b7          	lui	a1,0x66666
800012be:	66758593          	add	a1,a1,1639 # 66666667 <absimm+0x21374138>
800012c2:	652d                	lui	a0,0xb
800012c4:	50450513          	add	a0,a0,1284 # b504 <offset+0xb43c>
800012c8:	952e                	add	a0,a0,a1
800012ca:	3ea0a623          	sw	a0,1004(ra)

800012ce <inst_275>:
800012ce:	75d5                	lui	a1,0xffff5
800012d0:	afd58593          	add	a1,a1,-1283 # ffff4afd <immx+0x452e702d>
800012d4:	652d                	lui	a0,0xb
800012d6:	50450513          	add	a0,a0,1284 # b504 <offset+0xb43c>
800012da:	952e                	add	a0,a0,a1
800012dc:	3ea0a823          	sw	a0,1008(ra)

800012e0 <inst_276>:
800012e0:	65ad                	lui	a1,0xb
800012e2:	50558593          	add	a1,a1,1285 # b505 <offset+0xb43d>
800012e6:	652d                	lui	a0,0xb
800012e8:	50450513          	add	a0,a0,1284 # b504 <offset+0xb43c>
800012ec:	952e                	add	a0,a0,a1
800012ee:	3ea0aa23          	sw	a0,1012(ra)

800012f2 <inst_277>:
800012f2:	458d                	li	a1,3
800012f4:	4509                	li	a0,2
800012f6:	952e                	add	a0,a0,a1
800012f8:	3ea0ac23          	sw	a0,1016(ra)

800012fc <inst_278>:
800012fc:	555555b7          	lui	a1,0x55555
80001300:	55558593          	add	a1,a1,1365 # 55555555 <absimm+0x10263026>
80001304:	4509                	li	a0,2
80001306:	952e                	add	a0,a0,a1
80001308:	3ea0ae23          	sw	a0,1020(ra)

8000130c <inst_279>:
8000130c:	aaaab5b7          	lui	a1,0xaaaab
80001310:	aaa58593          	add	a1,a1,-1366 # aaaaaaaa <_end+0x2aaa506a>
80001314:	4509                	li	a0,2
80001316:	952e                	add	a0,a0,a1
80001318:	40a0a023          	sw	a0,1024(ra)

8000131c <inst_280>:
8000131c:	4595                	li	a1,5
8000131e:	4509                	li	a0,2
80001320:	952e                	add	a0,a0,a1
80001322:	40a0a223          	sw	a0,1028(ra)

80001326 <inst_281>:
80001326:	333335b7          	lui	a1,0x33333
8000132a:	33358593          	add	a1,a1,819 # 33333333 <offset+0x3333326b>
8000132e:	4509                	li	a0,2
80001330:	952e                	add	a0,a0,a1
80001332:	40a0a423          	sw	a0,1032(ra)

80001336 <inst_282>:
80001336:	666665b7          	lui	a1,0x66666
8000133a:	66658593          	add	a1,a1,1638 # 66666666 <absimm+0x21374137>
8000133e:	4509                	li	a0,2
80001340:	952e                	add	a0,a0,a1
80001342:	40a0a623          	sw	a0,1036(ra)

80001346 <inst_283>:
80001346:	75d5                	lui	a1,0xffff5
80001348:	afc58593          	add	a1,a1,-1284 # ffff4afc <immx+0x452e702c>
8000134c:	4509                	li	a0,2
8000134e:	952e                	add	a0,a0,a1
80001350:	40a0a823          	sw	a0,1040(ra)

80001354 <inst_284>:
80001354:	65ad                	lui	a1,0xb
80001356:	50458593          	add	a1,a1,1284 # b504 <offset+0xb43c>
8000135a:	4509                	li	a0,2
8000135c:	952e                	add	a0,a0,a1
8000135e:	40a0aa23          	sw	a0,1044(ra)

80001362 <inst_285>:
80001362:	4589                	li	a1,2
80001364:	4509                	li	a0,2
80001366:	952e                	add	a0,a0,a1
80001368:	40a0ac23          	sw	a0,1048(ra)

8000136c <inst_286>:
8000136c:	555555b7          	lui	a1,0x55555
80001370:	55458593          	add	a1,a1,1364 # 55555554 <absimm+0x10263025>
80001374:	4509                	li	a0,2
80001376:	952e                	add	a0,a0,a1
80001378:	40a0ae23          	sw	a0,1052(ra)

8000137c <inst_287>:
8000137c:	4581                	li	a1,0
8000137e:	4509                	li	a0,2
80001380:	952e                	add	a0,a0,a1
80001382:	42a0a023          	sw	a0,1056(ra)

80001386 <inst_288>:
80001386:	4591                	li	a1,4
80001388:	4509                	li	a0,2
8000138a:	952e                	add	a0,a0,a1
8000138c:	42a0a223          	sw	a0,1060(ra)

80001390 <inst_289>:
80001390:	333335b7          	lui	a1,0x33333
80001394:	33258593          	add	a1,a1,818 # 33333332 <offset+0x3333326a>
80001398:	4509                	li	a0,2
8000139a:	952e                	add	a0,a0,a1
8000139c:	42a0a423          	sw	a0,1064(ra)

800013a0 <inst_290>:
800013a0:	666665b7          	lui	a1,0x66666
800013a4:	66558593          	add	a1,a1,1637 # 66666665 <absimm+0x21374136>
800013a8:	4509                	li	a0,2
800013aa:	952e                	add	a0,a0,a1
800013ac:	42a0a623          	sw	a0,1068(ra)

800013b0 <inst_291>:
800013b0:	65ad                	lui	a1,0xb
800013b2:	50358593          	add	a1,a1,1283 # b503 <offset+0xb43b>
800013b6:	4509                	li	a0,2
800013b8:	952e                	add	a0,a0,a1
800013ba:	42a0a823          	sw	a0,1072(ra)

800013be <inst_292>:
800013be:	555555b7          	lui	a1,0x55555
800013c2:	55658593          	add	a1,a1,1366 # 55555556 <absimm+0x10263027>
800013c6:	4509                	li	a0,2
800013c8:	952e                	add	a0,a0,a1
800013ca:	42a0aa23          	sw	a0,1076(ra)

800013ce <inst_293>:
800013ce:	aaaab5b7          	lui	a1,0xaaaab
800013d2:	aab58593          	add	a1,a1,-1365 # aaaaaaab <_end+0x2aaa506b>
800013d6:	4509                	li	a0,2
800013d8:	952e                	add	a0,a0,a1
800013da:	42a0ac23          	sw	a0,1080(ra)

800013de <inst_294>:
800013de:	4599                	li	a1,6
800013e0:	4509                	li	a0,2
800013e2:	952e                	add	a0,a0,a1
800013e4:	42a0ae23          	sw	a0,1084(ra)

800013e8 <inst_295>:
800013e8:	333335b7          	lui	a1,0x33333
800013ec:	33458593          	add	a1,a1,820 # 33333334 <offset+0x3333326c>
800013f0:	4509                	li	a0,2
800013f2:	952e                	add	a0,a0,a1
800013f4:	44a0a023          	sw	a0,1088(ra)

800013f8 <inst_296>:
800013f8:	666665b7          	lui	a1,0x66666
800013fc:	66758593          	add	a1,a1,1639 # 66666667 <absimm+0x21374138>
80001400:	4509                	li	a0,2
80001402:	952e                	add	a0,a0,a1
80001404:	44a0a223          	sw	a0,1092(ra)

80001408 <inst_297>:
80001408:	75d5                	lui	a1,0xffff5
8000140a:	afd58593          	add	a1,a1,-1283 # ffff4afd <immx+0x452e702d>
8000140e:	4509                	li	a0,2
80001410:	952e                	add	a0,a0,a1
80001412:	44a0a423          	sw	a0,1096(ra)

80001416 <inst_298>:
80001416:	65ad                	lui	a1,0xb
80001418:	50558593          	add	a1,a1,1285 # b505 <offset+0xb43d>
8000141c:	4509                	li	a0,2
8000141e:	952e                	add	a0,a0,a1
80001420:	44a0a623          	sw	a0,1100(ra)

80001424 <inst_299>:
80001424:	458d                	li	a1,3
80001426:	55555537          	lui	a0,0x55555
8000142a:	55450513          	add	a0,a0,1364 # 55555554 <absimm+0x10263025>
8000142e:	952e                	add	a0,a0,a1
80001430:	44a0a823          	sw	a0,1104(ra)

80001434 <inst_300>:
80001434:	555555b7          	lui	a1,0x55555
80001438:	55558593          	add	a1,a1,1365 # 55555555 <absimm+0x10263026>
8000143c:	55555537          	lui	a0,0x55555
80001440:	55450513          	add	a0,a0,1364 # 55555554 <absimm+0x10263025>
80001444:	952e                	add	a0,a0,a1
80001446:	44a0aa23          	sw	a0,1108(ra)

8000144a <inst_301>:
8000144a:	aaaab5b7          	lui	a1,0xaaaab
8000144e:	aaa58593          	add	a1,a1,-1366 # aaaaaaaa <_end+0x2aaa506a>
80001452:	55555537          	lui	a0,0x55555
80001456:	55450513          	add	a0,a0,1364 # 55555554 <absimm+0x10263025>
8000145a:	952e                	add	a0,a0,a1
8000145c:	44a0ac23          	sw	a0,1112(ra)

80001460 <inst_302>:
80001460:	4595                	li	a1,5
80001462:	55555537          	lui	a0,0x55555
80001466:	55450513          	add	a0,a0,1364 # 55555554 <absimm+0x10263025>
8000146a:	952e                	add	a0,a0,a1
8000146c:	44a0ae23          	sw	a0,1116(ra)

80001470 <inst_303>:
80001470:	333335b7          	lui	a1,0x33333
80001474:	33358593          	add	a1,a1,819 # 33333333 <offset+0x3333326b>
80001478:	55555537          	lui	a0,0x55555
8000147c:	55450513          	add	a0,a0,1364 # 55555554 <absimm+0x10263025>
80001480:	952e                	add	a0,a0,a1
80001482:	46a0a023          	sw	a0,1120(ra)

80001486 <inst_304>:
80001486:	666665b7          	lui	a1,0x66666
8000148a:	66658593          	add	a1,a1,1638 # 66666666 <absimm+0x21374137>
8000148e:	55555537          	lui	a0,0x55555
80001492:	55450513          	add	a0,a0,1364 # 55555554 <absimm+0x10263025>
80001496:	952e                	add	a0,a0,a1
80001498:	46a0a223          	sw	a0,1124(ra)

8000149c <inst_305>:
8000149c:	75d5                	lui	a1,0xffff5
8000149e:	afc58593          	add	a1,a1,-1284 # ffff4afc <immx+0x452e702c>
800014a2:	55555537          	lui	a0,0x55555
800014a6:	55450513          	add	a0,a0,1364 # 55555554 <absimm+0x10263025>
800014aa:	952e                	add	a0,a0,a1
800014ac:	46a0a423          	sw	a0,1128(ra)

800014b0 <inst_306>:
800014b0:	65ad                	lui	a1,0xb
800014b2:	50458593          	add	a1,a1,1284 # b504 <offset+0xb43c>
800014b6:	55555537          	lui	a0,0x55555
800014ba:	55450513          	add	a0,a0,1364 # 55555554 <absimm+0x10263025>
800014be:	952e                	add	a0,a0,a1
800014c0:	46a0a623          	sw	a0,1132(ra)

800014c4 <inst_307>:
800014c4:	4589                	li	a1,2
800014c6:	55555537          	lui	a0,0x55555
800014ca:	55450513          	add	a0,a0,1364 # 55555554 <absimm+0x10263025>
800014ce:	952e                	add	a0,a0,a1
800014d0:	46a0a823          	sw	a0,1136(ra)

800014d4 <inst_308>:
800014d4:	555555b7          	lui	a1,0x55555
800014d8:	55458593          	add	a1,a1,1364 # 55555554 <absimm+0x10263025>
800014dc:	55555537          	lui	a0,0x55555
800014e0:	55450513          	add	a0,a0,1364 # 55555554 <absimm+0x10263025>
800014e4:	952e                	add	a0,a0,a1
800014e6:	46a0aa23          	sw	a0,1140(ra)

800014ea <inst_309>:
800014ea:	4581                	li	a1,0
800014ec:	55555537          	lui	a0,0x55555
800014f0:	55450513          	add	a0,a0,1364 # 55555554 <absimm+0x10263025>
800014f4:	952e                	add	a0,a0,a1
800014f6:	46a0ac23          	sw	a0,1144(ra)

800014fa <inst_310>:
800014fa:	4591                	li	a1,4
800014fc:	55555537          	lui	a0,0x55555
80001500:	55450513          	add	a0,a0,1364 # 55555554 <absimm+0x10263025>
80001504:	952e                	add	a0,a0,a1
80001506:	46a0ae23          	sw	a0,1148(ra)

8000150a <inst_311>:
8000150a:	333335b7          	lui	a1,0x33333
8000150e:	33258593          	add	a1,a1,818 # 33333332 <offset+0x3333326a>
80001512:	55555537          	lui	a0,0x55555
80001516:	55450513          	add	a0,a0,1364 # 55555554 <absimm+0x10263025>
8000151a:	952e                	add	a0,a0,a1
8000151c:	48a0a023          	sw	a0,1152(ra)

80001520 <inst_312>:
80001520:	666665b7          	lui	a1,0x66666
80001524:	66558593          	add	a1,a1,1637 # 66666665 <absimm+0x21374136>
80001528:	55555537          	lui	a0,0x55555
8000152c:	55450513          	add	a0,a0,1364 # 55555554 <absimm+0x10263025>
80001530:	952e                	add	a0,a0,a1
80001532:	48a0a223          	sw	a0,1156(ra)

80001536 <inst_313>:
80001536:	65ad                	lui	a1,0xb
80001538:	50358593          	add	a1,a1,1283 # b503 <offset+0xb43b>
8000153c:	55555537          	lui	a0,0x55555
80001540:	55450513          	add	a0,a0,1364 # 55555554 <absimm+0x10263025>
80001544:	952e                	add	a0,a0,a1
80001546:	48a0a423          	sw	a0,1160(ra)

8000154a <inst_314>:
8000154a:	555555b7          	lui	a1,0x55555
8000154e:	55658593          	add	a1,a1,1366 # 55555556 <absimm+0x10263027>
80001552:	55555537          	lui	a0,0x55555
80001556:	55450513          	add	a0,a0,1364 # 55555554 <absimm+0x10263025>
8000155a:	952e                	add	a0,a0,a1
8000155c:	48a0a623          	sw	a0,1164(ra)

80001560 <inst_315>:
80001560:	aaaab5b7          	lui	a1,0xaaaab
80001564:	aab58593          	add	a1,a1,-1365 # aaaaaaab <_end+0x2aaa506b>
80001568:	55555537          	lui	a0,0x55555
8000156c:	55450513          	add	a0,a0,1364 # 55555554 <absimm+0x10263025>
80001570:	952e                	add	a0,a0,a1
80001572:	48a0a823          	sw	a0,1168(ra)

80001576 <inst_316>:
80001576:	4599                	li	a1,6
80001578:	55555537          	lui	a0,0x55555
8000157c:	55450513          	add	a0,a0,1364 # 55555554 <absimm+0x10263025>
80001580:	952e                	add	a0,a0,a1
80001582:	48a0aa23          	sw	a0,1172(ra)

80001586 <inst_317>:
80001586:	333335b7          	lui	a1,0x33333
8000158a:	33458593          	add	a1,a1,820 # 33333334 <offset+0x3333326c>
8000158e:	55555537          	lui	a0,0x55555
80001592:	55450513          	add	a0,a0,1364 # 55555554 <absimm+0x10263025>
80001596:	952e                	add	a0,a0,a1
80001598:	48a0ac23          	sw	a0,1176(ra)

8000159c <inst_318>:
8000159c:	666665b7          	lui	a1,0x66666
800015a0:	66758593          	add	a1,a1,1639 # 66666667 <absimm+0x21374138>
800015a4:	55555537          	lui	a0,0x55555
800015a8:	55450513          	add	a0,a0,1364 # 55555554 <absimm+0x10263025>
800015ac:	952e                	add	a0,a0,a1
800015ae:	48a0ae23          	sw	a0,1180(ra)

800015b2 <inst_319>:
800015b2:	75d5                	lui	a1,0xffff5
800015b4:	afd58593          	add	a1,a1,-1283 # ffff4afd <immx+0x452e702d>
800015b8:	55555537          	lui	a0,0x55555
800015bc:	55450513          	add	a0,a0,1364 # 55555554 <absimm+0x10263025>
800015c0:	952e                	add	a0,a0,a1
800015c2:	4aa0a023          	sw	a0,1184(ra)

800015c6 <inst_320>:
800015c6:	65ad                	lui	a1,0xb
800015c8:	50558593          	add	a1,a1,1285 # b505 <offset+0xb43d>
800015cc:	55555537          	lui	a0,0x55555
800015d0:	55450513          	add	a0,a0,1364 # 55555554 <absimm+0x10263025>
800015d4:	952e                	add	a0,a0,a1
800015d6:	4aa0a223          	sw	a0,1188(ra)

800015da <inst_321>:
800015da:	458d                	li	a1,3
800015dc:	4501                	li	a0,0
800015de:	952e                	add	a0,a0,a1
800015e0:	4aa0a423          	sw	a0,1192(ra)

800015e4 <inst_322>:
800015e4:	555555b7          	lui	a1,0x55555
800015e8:	55558593          	add	a1,a1,1365 # 55555555 <absimm+0x10263026>
800015ec:	4501                	li	a0,0
800015ee:	952e                	add	a0,a0,a1
800015f0:	4aa0a623          	sw	a0,1196(ra)

800015f4 <inst_323>:
800015f4:	aaaab5b7          	lui	a1,0xaaaab
800015f8:	aaa58593          	add	a1,a1,-1366 # aaaaaaaa <_end+0x2aaa506a>
800015fc:	4501                	li	a0,0
800015fe:	952e                	add	a0,a0,a1
80001600:	4aa0a823          	sw	a0,1200(ra)

80001604 <inst_324>:
80001604:	4595                	li	a1,5
80001606:	4501                	li	a0,0
80001608:	952e                	add	a0,a0,a1
8000160a:	4aa0aa23          	sw	a0,1204(ra)

8000160e <inst_325>:
8000160e:	333335b7          	lui	a1,0x33333
80001612:	33358593          	add	a1,a1,819 # 33333333 <offset+0x3333326b>
80001616:	4501                	li	a0,0
80001618:	952e                	add	a0,a0,a1
8000161a:	4aa0ac23          	sw	a0,1208(ra)

8000161e <inst_326>:
8000161e:	666665b7          	lui	a1,0x66666
80001622:	66658593          	add	a1,a1,1638 # 66666666 <absimm+0x21374137>
80001626:	4501                	li	a0,0
80001628:	952e                	add	a0,a0,a1
8000162a:	4aa0ae23          	sw	a0,1212(ra)

8000162e <inst_327>:
8000162e:	75d5                	lui	a1,0xffff5
80001630:	afc58593          	add	a1,a1,-1284 # ffff4afc <immx+0x452e702c>
80001634:	4501                	li	a0,0
80001636:	952e                	add	a0,a0,a1
80001638:	4ca0a023          	sw	a0,1216(ra)

8000163c <inst_328>:
8000163c:	65ad                	lui	a1,0xb
8000163e:	50458593          	add	a1,a1,1284 # b504 <offset+0xb43c>
80001642:	4501                	li	a0,0
80001644:	952e                	add	a0,a0,a1
80001646:	4ca0a223          	sw	a0,1220(ra)

8000164a <inst_329>:
8000164a:	4589                	li	a1,2
8000164c:	4501                	li	a0,0
8000164e:	952e                	add	a0,a0,a1
80001650:	4ca0a423          	sw	a0,1224(ra)

80001654 <inst_330>:
80001654:	75d5                	lui	a1,0xffff5
80001656:	afd58593          	add	a1,a1,-1283 # ffff4afd <immx+0x452e702d>
8000165a:	aaaab537          	lui	a0,0xaaaab
8000165e:	aab50513          	add	a0,a0,-1365 # aaaaaaab <_end+0x2aaa506b>
80001662:	952e                	add	a0,a0,a1
80001664:	4ca0a623          	sw	a0,1228(ra)

80001668 <inst_331>:
80001668:	65ad                	lui	a1,0xb
8000166a:	50558593          	add	a1,a1,1285 # b505 <offset+0xb43d>
8000166e:	aaaab537          	lui	a0,0xaaaab
80001672:	aab50513          	add	a0,a0,-1365 # aaaaaaab <_end+0x2aaa506b>
80001676:	952e                	add	a0,a0,a1
80001678:	4ca0a823          	sw	a0,1232(ra)

8000167c <inst_332>:
8000167c:	458d                	li	a1,3
8000167e:	4519                	li	a0,6
80001680:	952e                	add	a0,a0,a1
80001682:	4ca0aa23          	sw	a0,1236(ra)

80001686 <inst_333>:
80001686:	555555b7          	lui	a1,0x55555
8000168a:	55558593          	add	a1,a1,1365 # 55555555 <absimm+0x10263026>
8000168e:	4519                	li	a0,6
80001690:	952e                	add	a0,a0,a1
80001692:	4ca0ac23          	sw	a0,1240(ra)

80001696 <inst_334>:
80001696:	aaaab5b7          	lui	a1,0xaaaab
8000169a:	aaa58593          	add	a1,a1,-1366 # aaaaaaaa <_end+0x2aaa506a>
8000169e:	4519                	li	a0,6
800016a0:	952e                	add	a0,a0,a1
800016a2:	4ca0ae23          	sw	a0,1244(ra)

800016a6 <inst_335>:
800016a6:	4595                	li	a1,5
800016a8:	4519                	li	a0,6
800016aa:	952e                	add	a0,a0,a1
800016ac:	4ea0a023          	sw	a0,1248(ra)

800016b0 <inst_336>:
800016b0:	333335b7          	lui	a1,0x33333
800016b4:	33358593          	add	a1,a1,819 # 33333333 <offset+0x3333326b>
800016b8:	4519                	li	a0,6
800016ba:	952e                	add	a0,a0,a1
800016bc:	4ea0a223          	sw	a0,1252(ra)

800016c0 <inst_337>:
800016c0:	666665b7          	lui	a1,0x66666
800016c4:	66658593          	add	a1,a1,1638 # 66666666 <absimm+0x21374137>
800016c8:	4519                	li	a0,6
800016ca:	952e                	add	a0,a0,a1
800016cc:	4ea0a423          	sw	a0,1256(ra)

800016d0 <inst_338>:
800016d0:	75d5                	lui	a1,0xffff5
800016d2:	afc58593          	add	a1,a1,-1284 # ffff4afc <immx+0x452e702c>
800016d6:	4519                	li	a0,6
800016d8:	952e                	add	a0,a0,a1
800016da:	4ea0a623          	sw	a0,1260(ra)

800016de <inst_339>:
800016de:	65ad                	lui	a1,0xb
800016e0:	50458593          	add	a1,a1,1284 # b504 <offset+0xb43c>
800016e4:	4519                	li	a0,6
800016e6:	952e                	add	a0,a0,a1
800016e8:	4ea0a823          	sw	a0,1264(ra)

800016ec <inst_340>:
800016ec:	4589                	li	a1,2
800016ee:	4519                	li	a0,6
800016f0:	952e                	add	a0,a0,a1
800016f2:	4ea0aa23          	sw	a0,1268(ra)

800016f6 <inst_341>:
800016f6:	555555b7          	lui	a1,0x55555
800016fa:	55458593          	add	a1,a1,1364 # 55555554 <absimm+0x10263025>
800016fe:	4519                	li	a0,6
80001700:	952e                	add	a0,a0,a1
80001702:	4ea0ac23          	sw	a0,1272(ra)

80001706 <inst_342>:
80001706:	4581                	li	a1,0
80001708:	4519                	li	a0,6
8000170a:	952e                	add	a0,a0,a1
8000170c:	4ea0ae23          	sw	a0,1276(ra)

80001710 <inst_343>:
80001710:	4591                	li	a1,4
80001712:	4519                	li	a0,6
80001714:	952e                	add	a0,a0,a1
80001716:	50a0a023          	sw	a0,1280(ra)

8000171a <inst_344>:
8000171a:	333335b7          	lui	a1,0x33333
8000171e:	33258593          	add	a1,a1,818 # 33333332 <offset+0x3333326a>
80001722:	4519                	li	a0,6
80001724:	952e                	add	a0,a0,a1
80001726:	50a0a223          	sw	a0,1284(ra)

8000172a <inst_345>:
8000172a:	666665b7          	lui	a1,0x66666
8000172e:	66558593          	add	a1,a1,1637 # 66666665 <absimm+0x21374136>
80001732:	4519                	li	a0,6
80001734:	952e                	add	a0,a0,a1
80001736:	50a0a423          	sw	a0,1288(ra)

8000173a <inst_346>:
8000173a:	65ad                	lui	a1,0xb
8000173c:	50358593          	add	a1,a1,1283 # b503 <offset+0xb43b>
80001740:	4519                	li	a0,6
80001742:	952e                	add	a0,a0,a1
80001744:	50a0a623          	sw	a0,1292(ra)

80001748 <inst_347>:
80001748:	555555b7          	lui	a1,0x55555
8000174c:	55658593          	add	a1,a1,1366 # 55555556 <absimm+0x10263027>
80001750:	4519                	li	a0,6
80001752:	952e                	add	a0,a0,a1
80001754:	50a0a823          	sw	a0,1296(ra)

80001758 <inst_348>:
80001758:	aaaab5b7          	lui	a1,0xaaaab
8000175c:	aab58593          	add	a1,a1,-1365 # aaaaaaab <_end+0x2aaa506b>
80001760:	4519                	li	a0,6
80001762:	952e                	add	a0,a0,a1
80001764:	50a0aa23          	sw	a0,1300(ra)

80001768 <inst_349>:
80001768:	4599                	li	a1,6
8000176a:	4519                	li	a0,6
8000176c:	952e                	add	a0,a0,a1
8000176e:	50a0ac23          	sw	a0,1304(ra)

80001772 <inst_350>:
80001772:	333335b7          	lui	a1,0x33333
80001776:	33458593          	add	a1,a1,820 # 33333334 <offset+0x3333326c>
8000177a:	4519                	li	a0,6
8000177c:	952e                	add	a0,a0,a1
8000177e:	50a0ae23          	sw	a0,1308(ra)

80001782 <inst_351>:
80001782:	666665b7          	lui	a1,0x66666
80001786:	66758593          	add	a1,a1,1639 # 66666667 <absimm+0x21374138>
8000178a:	4519                	li	a0,6
8000178c:	952e                	add	a0,a0,a1
8000178e:	52a0a023          	sw	a0,1312(ra)

80001792 <inst_352>:
80001792:	75d5                	lui	a1,0xffff5
80001794:	afd58593          	add	a1,a1,-1283 # ffff4afd <immx+0x452e702d>
80001798:	4519                	li	a0,6
8000179a:	952e                	add	a0,a0,a1
8000179c:	52a0a223          	sw	a0,1316(ra)

800017a0 <inst_353>:
800017a0:	65ad                	lui	a1,0xb
800017a2:	50558593          	add	a1,a1,1285 # b505 <offset+0xb43d>
800017a6:	4519                	li	a0,6
800017a8:	952e                	add	a0,a0,a1
800017aa:	52a0a423          	sw	a0,1320(ra)

800017ae <inst_354>:
800017ae:	458d                	li	a1,3
800017b0:	33333537          	lui	a0,0x33333
800017b4:	33450513          	add	a0,a0,820 # 33333334 <offset+0x3333326c>
800017b8:	952e                	add	a0,a0,a1
800017ba:	52a0a623          	sw	a0,1324(ra)

800017be <inst_355>:
800017be:	555555b7          	lui	a1,0x55555
800017c2:	55558593          	add	a1,a1,1365 # 55555555 <absimm+0x10263026>
800017c6:	33333537          	lui	a0,0x33333
800017ca:	33450513          	add	a0,a0,820 # 33333334 <offset+0x3333326c>
800017ce:	952e                	add	a0,a0,a1
800017d0:	52a0a823          	sw	a0,1328(ra)

800017d4 <inst_356>:
800017d4:	aaaab5b7          	lui	a1,0xaaaab
800017d8:	aaa58593          	add	a1,a1,-1366 # aaaaaaaa <_end+0x2aaa506a>
800017dc:	33333537          	lui	a0,0x33333
800017e0:	33450513          	add	a0,a0,820 # 33333334 <offset+0x3333326c>
800017e4:	952e                	add	a0,a0,a1
800017e6:	52a0aa23          	sw	a0,1332(ra)

800017ea <inst_357>:
800017ea:	4595                	li	a1,5
800017ec:	33333537          	lui	a0,0x33333
800017f0:	33450513          	add	a0,a0,820 # 33333334 <offset+0x3333326c>
800017f4:	952e                	add	a0,a0,a1
800017f6:	52a0ac23          	sw	a0,1336(ra)

800017fa <inst_358>:
800017fa:	333335b7          	lui	a1,0x33333
800017fe:	33358593          	add	a1,a1,819 # 33333333 <offset+0x3333326b>
80001802:	33333537          	lui	a0,0x33333
80001806:	33450513          	add	a0,a0,820 # 33333334 <offset+0x3333326c>
8000180a:	952e                	add	a0,a0,a1
8000180c:	52a0ae23          	sw	a0,1340(ra)

80001810 <inst_359>:
80001810:	666665b7          	lui	a1,0x66666
80001814:	66658593          	add	a1,a1,1638 # 66666666 <absimm+0x21374137>
80001818:	33333537          	lui	a0,0x33333
8000181c:	33450513          	add	a0,a0,820 # 33333334 <offset+0x3333326c>
80001820:	952e                	add	a0,a0,a1
80001822:	54a0a023          	sw	a0,1344(ra)

80001826 <inst_360>:
80001826:	75d5                	lui	a1,0xffff5
80001828:	afc58593          	add	a1,a1,-1284 # ffff4afc <immx+0x452e702c>
8000182c:	33333537          	lui	a0,0x33333
80001830:	33450513          	add	a0,a0,820 # 33333334 <offset+0x3333326c>
80001834:	952e                	add	a0,a0,a1
80001836:	54a0a223          	sw	a0,1348(ra)

8000183a <inst_361>:
8000183a:	65ad                	lui	a1,0xb
8000183c:	50458593          	add	a1,a1,1284 # b504 <offset+0xb43c>
80001840:	33333537          	lui	a0,0x33333
80001844:	33450513          	add	a0,a0,820 # 33333334 <offset+0x3333326c>
80001848:	952e                	add	a0,a0,a1
8000184a:	54a0a423          	sw	a0,1352(ra)

8000184e <inst_362>:
8000184e:	4589                	li	a1,2
80001850:	33333537          	lui	a0,0x33333
80001854:	33450513          	add	a0,a0,820 # 33333334 <offset+0x3333326c>
80001858:	952e                	add	a0,a0,a1
8000185a:	54a0a623          	sw	a0,1356(ra)

8000185e <inst_363>:
8000185e:	555555b7          	lui	a1,0x55555
80001862:	55458593          	add	a1,a1,1364 # 55555554 <absimm+0x10263025>
80001866:	33333537          	lui	a0,0x33333
8000186a:	33450513          	add	a0,a0,820 # 33333334 <offset+0x3333326c>
8000186e:	952e                	add	a0,a0,a1
80001870:	54a0a823          	sw	a0,1360(ra)

80001874 <inst_364>:
80001874:	4581                	li	a1,0
80001876:	33333537          	lui	a0,0x33333
8000187a:	33450513          	add	a0,a0,820 # 33333334 <offset+0x3333326c>
8000187e:	952e                	add	a0,a0,a1
80001880:	54a0aa23          	sw	a0,1364(ra)

80001884 <inst_365>:
80001884:	4591                	li	a1,4
80001886:	33333537          	lui	a0,0x33333
8000188a:	33450513          	add	a0,a0,820 # 33333334 <offset+0x3333326c>
8000188e:	952e                	add	a0,a0,a1
80001890:	54a0ac23          	sw	a0,1368(ra)

80001894 <inst_366>:
80001894:	333335b7          	lui	a1,0x33333
80001898:	33258593          	add	a1,a1,818 # 33333332 <offset+0x3333326a>
8000189c:	33333537          	lui	a0,0x33333
800018a0:	33450513          	add	a0,a0,820 # 33333334 <offset+0x3333326c>
800018a4:	952e                	add	a0,a0,a1
800018a6:	54a0ae23          	sw	a0,1372(ra)

800018aa <inst_367>:
800018aa:	666665b7          	lui	a1,0x66666
800018ae:	66558593          	add	a1,a1,1637 # 66666665 <absimm+0x21374136>
800018b2:	33333537          	lui	a0,0x33333
800018b6:	33450513          	add	a0,a0,820 # 33333334 <offset+0x3333326c>
800018ba:	952e                	add	a0,a0,a1
800018bc:	56a0a023          	sw	a0,1376(ra)

800018c0 <inst_368>:
800018c0:	65ad                	lui	a1,0xb
800018c2:	50358593          	add	a1,a1,1283 # b503 <offset+0xb43b>
800018c6:	33333537          	lui	a0,0x33333
800018ca:	33450513          	add	a0,a0,820 # 33333334 <offset+0x3333326c>
800018ce:	952e                	add	a0,a0,a1
800018d0:	56a0a223          	sw	a0,1380(ra)

800018d4 <inst_369>:
800018d4:	555555b7          	lui	a1,0x55555
800018d8:	55658593          	add	a1,a1,1366 # 55555556 <absimm+0x10263027>
800018dc:	33333537          	lui	a0,0x33333
800018e0:	33450513          	add	a0,a0,820 # 33333334 <offset+0x3333326c>
800018e4:	952e                	add	a0,a0,a1
800018e6:	56a0a423          	sw	a0,1384(ra)

800018ea <inst_370>:
800018ea:	aaaab5b7          	lui	a1,0xaaaab
800018ee:	aab58593          	add	a1,a1,-1365 # aaaaaaab <_end+0x2aaa506b>
800018f2:	33333537          	lui	a0,0x33333
800018f6:	33450513          	add	a0,a0,820 # 33333334 <offset+0x3333326c>
800018fa:	952e                	add	a0,a0,a1
800018fc:	56a0a623          	sw	a0,1388(ra)

80001900 <inst_371>:
80001900:	4599                	li	a1,6
80001902:	33333537          	lui	a0,0x33333
80001906:	33450513          	add	a0,a0,820 # 33333334 <offset+0x3333326c>
8000190a:	952e                	add	a0,a0,a1
8000190c:	56a0a823          	sw	a0,1392(ra)

80001910 <inst_372>:
80001910:	333335b7          	lui	a1,0x33333
80001914:	33458593          	add	a1,a1,820 # 33333334 <offset+0x3333326c>
80001918:	33333537          	lui	a0,0x33333
8000191c:	33450513          	add	a0,a0,820 # 33333334 <offset+0x3333326c>
80001920:	952e                	add	a0,a0,a1
80001922:	56a0aa23          	sw	a0,1396(ra)

80001926 <inst_373>:
80001926:	666665b7          	lui	a1,0x66666
8000192a:	66758593          	add	a1,a1,1639 # 66666667 <absimm+0x21374138>
8000192e:	33333537          	lui	a0,0x33333
80001932:	33450513          	add	a0,a0,820 # 33333334 <offset+0x3333326c>
80001936:	952e                	add	a0,a0,a1
80001938:	56a0ac23          	sw	a0,1400(ra)

8000193c <inst_374>:
8000193c:	75d5                	lui	a1,0xffff5
8000193e:	afd58593          	add	a1,a1,-1283 # ffff4afd <immx+0x452e702d>
80001942:	33333537          	lui	a0,0x33333
80001946:	33450513          	add	a0,a0,820 # 33333334 <offset+0x3333326c>
8000194a:	952e                	add	a0,a0,a1
8000194c:	56a0ae23          	sw	a0,1404(ra)

80001950 <inst_375>:
80001950:	65ad                	lui	a1,0xb
80001952:	50558593          	add	a1,a1,1285 # b505 <offset+0xb43d>
80001956:	33333537          	lui	a0,0x33333
8000195a:	33450513          	add	a0,a0,820 # 33333334 <offset+0x3333326c>
8000195e:	952e                	add	a0,a0,a1
80001960:	58a0a023          	sw	a0,1408(ra)

80001964 <inst_376>:
80001964:	458d                	li	a1,3
80001966:	66666537          	lui	a0,0x66666
8000196a:	66750513          	add	a0,a0,1639 # 66666667 <absimm+0x21374138>
8000196e:	952e                	add	a0,a0,a1
80001970:	58a0a223          	sw	a0,1412(ra)

80001974 <inst_377>:
80001974:	555555b7          	lui	a1,0x55555
80001978:	55558593          	add	a1,a1,1365 # 55555555 <absimm+0x10263026>
8000197c:	66666537          	lui	a0,0x66666
80001980:	66750513          	add	a0,a0,1639 # 66666667 <absimm+0x21374138>
80001984:	952e                	add	a0,a0,a1
80001986:	58a0a423          	sw	a0,1416(ra)

8000198a <inst_378>:
8000198a:	aaaab5b7          	lui	a1,0xaaaab
8000198e:	aaa58593          	add	a1,a1,-1366 # aaaaaaaa <_end+0x2aaa506a>
80001992:	66666537          	lui	a0,0x66666
80001996:	66750513          	add	a0,a0,1639 # 66666667 <absimm+0x21374138>
8000199a:	952e                	add	a0,a0,a1
8000199c:	58a0a623          	sw	a0,1420(ra)

800019a0 <inst_379>:
800019a0:	4595                	li	a1,5
800019a2:	66666537          	lui	a0,0x66666
800019a6:	66750513          	add	a0,a0,1639 # 66666667 <absimm+0x21374138>
800019aa:	952e                	add	a0,a0,a1
800019ac:	58a0a823          	sw	a0,1424(ra)

800019b0 <inst_380>:
800019b0:	333335b7          	lui	a1,0x33333
800019b4:	33358593          	add	a1,a1,819 # 33333333 <offset+0x3333326b>
800019b8:	66666537          	lui	a0,0x66666
800019bc:	66750513          	add	a0,a0,1639 # 66666667 <absimm+0x21374138>
800019c0:	952e                	add	a0,a0,a1
800019c2:	58a0aa23          	sw	a0,1428(ra)

800019c6 <inst_381>:
800019c6:	666665b7          	lui	a1,0x66666
800019ca:	66658593          	add	a1,a1,1638 # 66666666 <absimm+0x21374137>
800019ce:	66666537          	lui	a0,0x66666
800019d2:	66750513          	add	a0,a0,1639 # 66666667 <absimm+0x21374138>
800019d6:	952e                	add	a0,a0,a1
800019d8:	58a0ac23          	sw	a0,1432(ra)

800019dc <inst_382>:
800019dc:	75d5                	lui	a1,0xffff5
800019de:	afc58593          	add	a1,a1,-1284 # ffff4afc <immx+0x452e702c>
800019e2:	66666537          	lui	a0,0x66666
800019e6:	66750513          	add	a0,a0,1639 # 66666667 <absimm+0x21374138>
800019ea:	952e                	add	a0,a0,a1
800019ec:	58a0ae23          	sw	a0,1436(ra)

800019f0 <inst_383>:
800019f0:	65ad                	lui	a1,0xb
800019f2:	50458593          	add	a1,a1,1284 # b504 <offset+0xb43c>
800019f6:	66666537          	lui	a0,0x66666
800019fa:	66750513          	add	a0,a0,1639 # 66666667 <absimm+0x21374138>
800019fe:	952e                	add	a0,a0,a1
80001a00:	5aa0a023          	sw	a0,1440(ra)

80001a04 <inst_384>:
80001a04:	4589                	li	a1,2
80001a06:	66666537          	lui	a0,0x66666
80001a0a:	66750513          	add	a0,a0,1639 # 66666667 <absimm+0x21374138>
80001a0e:	952e                	add	a0,a0,a1
80001a10:	5aa0a223          	sw	a0,1444(ra)

80001a14 <inst_385>:
80001a14:	555555b7          	lui	a1,0x55555
80001a18:	55458593          	add	a1,a1,1364 # 55555554 <absimm+0x10263025>
80001a1c:	66666537          	lui	a0,0x66666
80001a20:	66750513          	add	a0,a0,1639 # 66666667 <absimm+0x21374138>
80001a24:	952e                	add	a0,a0,a1
80001a26:	5aa0a423          	sw	a0,1448(ra)

80001a2a <inst_386>:
80001a2a:	4581                	li	a1,0
80001a2c:	66666537          	lui	a0,0x66666
80001a30:	66750513          	add	a0,a0,1639 # 66666667 <absimm+0x21374138>
80001a34:	952e                	add	a0,a0,a1
80001a36:	5aa0a623          	sw	a0,1452(ra)

80001a3a <inst_387>:
80001a3a:	4591                	li	a1,4
80001a3c:	66666537          	lui	a0,0x66666
80001a40:	66750513          	add	a0,a0,1639 # 66666667 <absimm+0x21374138>
80001a44:	952e                	add	a0,a0,a1
80001a46:	5aa0a823          	sw	a0,1456(ra)

80001a4a <inst_388>:
80001a4a:	333335b7          	lui	a1,0x33333
80001a4e:	33258593          	add	a1,a1,818 # 33333332 <offset+0x3333326a>
80001a52:	66666537          	lui	a0,0x66666
80001a56:	66750513          	add	a0,a0,1639 # 66666667 <absimm+0x21374138>
80001a5a:	952e                	add	a0,a0,a1
80001a5c:	5aa0aa23          	sw	a0,1460(ra)

80001a60 <inst_389>:
80001a60:	666665b7          	lui	a1,0x66666
80001a64:	66558593          	add	a1,a1,1637 # 66666665 <absimm+0x21374136>
80001a68:	66666537          	lui	a0,0x66666
80001a6c:	66750513          	add	a0,a0,1639 # 66666667 <absimm+0x21374138>
80001a70:	952e                	add	a0,a0,a1
80001a72:	5aa0ac23          	sw	a0,1464(ra)

80001a76 <inst_390>:
80001a76:	65ad                	lui	a1,0xb
80001a78:	50358593          	add	a1,a1,1283 # b503 <offset+0xb43b>
80001a7c:	66666537          	lui	a0,0x66666
80001a80:	66750513          	add	a0,a0,1639 # 66666667 <absimm+0x21374138>
80001a84:	952e                	add	a0,a0,a1
80001a86:	5aa0ae23          	sw	a0,1468(ra)

80001a8a <inst_391>:
80001a8a:	555555b7          	lui	a1,0x55555
80001a8e:	55658593          	add	a1,a1,1366 # 55555556 <absimm+0x10263027>
80001a92:	66666537          	lui	a0,0x66666
80001a96:	66750513          	add	a0,a0,1639 # 66666667 <absimm+0x21374138>
80001a9a:	952e                	add	a0,a0,a1
80001a9c:	5ca0a023          	sw	a0,1472(ra)

80001aa0 <inst_392>:
80001aa0:	aaaab5b7          	lui	a1,0xaaaab
80001aa4:	aab58593          	add	a1,a1,-1365 # aaaaaaab <_end+0x2aaa506b>
80001aa8:	66666537          	lui	a0,0x66666
80001aac:	66750513          	add	a0,a0,1639 # 66666667 <absimm+0x21374138>
80001ab0:	952e                	add	a0,a0,a1
80001ab2:	5ca0a223          	sw	a0,1476(ra)

80001ab6 <inst_393>:
80001ab6:	4599                	li	a1,6
80001ab8:	66666537          	lui	a0,0x66666
80001abc:	66750513          	add	a0,a0,1639 # 66666667 <absimm+0x21374138>
80001ac0:	952e                	add	a0,a0,a1
80001ac2:	5ca0a423          	sw	a0,1480(ra)

80001ac6 <inst_394>:
80001ac6:	333335b7          	lui	a1,0x33333
80001aca:	33458593          	add	a1,a1,820 # 33333334 <offset+0x3333326c>
80001ace:	66666537          	lui	a0,0x66666
80001ad2:	66750513          	add	a0,a0,1639 # 66666667 <absimm+0x21374138>
80001ad6:	952e                	add	a0,a0,a1
80001ad8:	5ca0a623          	sw	a0,1484(ra)

80001adc <inst_395>:
80001adc:	666665b7          	lui	a1,0x66666
80001ae0:	66758593          	add	a1,a1,1639 # 66666667 <absimm+0x21374138>
80001ae4:	66666537          	lui	a0,0x66666
80001ae8:	66750513          	add	a0,a0,1639 # 66666667 <absimm+0x21374138>
80001aec:	952e                	add	a0,a0,a1
80001aee:	5ca0a823          	sw	a0,1488(ra)

80001af2 <inst_396>:
80001af2:	75d5                	lui	a1,0xffff5
80001af4:	afd58593          	add	a1,a1,-1283 # ffff4afd <immx+0x452e702d>
80001af8:	66666537          	lui	a0,0x66666
80001afc:	66750513          	add	a0,a0,1639 # 66666667 <absimm+0x21374138>
80001b00:	952e                	add	a0,a0,a1
80001b02:	5ca0aa23          	sw	a0,1492(ra)

80001b06 <inst_397>:
80001b06:	65ad                	lui	a1,0xb
80001b08:	50558593          	add	a1,a1,1285 # b505 <offset+0xb43d>
80001b0c:	66666537          	lui	a0,0x66666
80001b10:	66750513          	add	a0,a0,1639 # 66666667 <absimm+0x21374138>
80001b14:	952e                	add	a0,a0,a1
80001b16:	5ca0ac23          	sw	a0,1496(ra)

80001b1a <inst_398>:
80001b1a:	458d                	li	a1,3
80001b1c:	7555                	lui	a0,0xffff5
80001b1e:	afd50513          	add	a0,a0,-1283 # ffff4afd <immx+0x452e702d>
80001b22:	952e                	add	a0,a0,a1
80001b24:	5ca0ae23          	sw	a0,1500(ra)

80001b28 <inst_399>:
80001b28:	555555b7          	lui	a1,0x55555
80001b2c:	55558593          	add	a1,a1,1365 # 55555555 <absimm+0x10263026>
80001b30:	7555                	lui	a0,0xffff5
80001b32:	afd50513          	add	a0,a0,-1283 # ffff4afd <immx+0x452e702d>
80001b36:	952e                	add	a0,a0,a1
80001b38:	5ea0a023          	sw	a0,1504(ra)

80001b3c <inst_400>:
80001b3c:	aaaab5b7          	lui	a1,0xaaaab
80001b40:	aaa58593          	add	a1,a1,-1366 # aaaaaaaa <_end+0x2aaa506a>
80001b44:	7555                	lui	a0,0xffff5
80001b46:	afd50513          	add	a0,a0,-1283 # ffff4afd <immx+0x452e702d>
80001b4a:	952e                	add	a0,a0,a1
80001b4c:	5ea0a223          	sw	a0,1508(ra)

80001b50 <inst_401>:
80001b50:	4595                	li	a1,5
80001b52:	7555                	lui	a0,0xffff5
80001b54:	afd50513          	add	a0,a0,-1283 # ffff4afd <immx+0x452e702d>
80001b58:	952e                	add	a0,a0,a1
80001b5a:	5ea0a423          	sw	a0,1512(ra)

80001b5e <inst_402>:
80001b5e:	333335b7          	lui	a1,0x33333
80001b62:	33358593          	add	a1,a1,819 # 33333333 <offset+0x3333326b>
80001b66:	7555                	lui	a0,0xffff5
80001b68:	afd50513          	add	a0,a0,-1283 # ffff4afd <immx+0x452e702d>
80001b6c:	952e                	add	a0,a0,a1
80001b6e:	5ea0a623          	sw	a0,1516(ra)

80001b72 <inst_403>:
80001b72:	666665b7          	lui	a1,0x66666
80001b76:	66658593          	add	a1,a1,1638 # 66666666 <absimm+0x21374137>
80001b7a:	7555                	lui	a0,0xffff5
80001b7c:	afd50513          	add	a0,a0,-1283 # ffff4afd <immx+0x452e702d>
80001b80:	952e                	add	a0,a0,a1
80001b82:	5ea0a823          	sw	a0,1520(ra)

80001b86 <inst_404>:
80001b86:	75d5                	lui	a1,0xffff5
80001b88:	afc58593          	add	a1,a1,-1284 # ffff4afc <immx+0x452e702c>
80001b8c:	7555                	lui	a0,0xffff5
80001b8e:	afd50513          	add	a0,a0,-1283 # ffff4afd <immx+0x452e702d>
80001b92:	952e                	add	a0,a0,a1
80001b94:	5ea0aa23          	sw	a0,1524(ra)

80001b98 <inst_405>:
80001b98:	65ad                	lui	a1,0xb
80001b9a:	50458593          	add	a1,a1,1284 # b504 <offset+0xb43c>
80001b9e:	7555                	lui	a0,0xffff5
80001ba0:	afd50513          	add	a0,a0,-1283 # ffff4afd <immx+0x452e702d>
80001ba4:	952e                	add	a0,a0,a1
80001ba6:	5ea0ac23          	sw	a0,1528(ra)

80001baa <inst_406>:
80001baa:	4589                	li	a1,2
80001bac:	7555                	lui	a0,0xffff5
80001bae:	afd50513          	add	a0,a0,-1283 # ffff4afd <immx+0x452e702d>
80001bb2:	952e                	add	a0,a0,a1
80001bb4:	5ea0ae23          	sw	a0,1532(ra)

80001bb8 <inst_407>:
80001bb8:	555555b7          	lui	a1,0x55555
80001bbc:	55458593          	add	a1,a1,1364 # 55555554 <absimm+0x10263025>
80001bc0:	7555                	lui	a0,0xffff5
80001bc2:	afd50513          	add	a0,a0,-1283 # ffff4afd <immx+0x452e702d>
80001bc6:	952e                	add	a0,a0,a1
80001bc8:	60a0a023          	sw	a0,1536(ra)

80001bcc <inst_408>:
80001bcc:	4581                	li	a1,0
80001bce:	7555                	lui	a0,0xffff5
80001bd0:	afd50513          	add	a0,a0,-1283 # ffff4afd <immx+0x452e702d>
80001bd4:	952e                	add	a0,a0,a1
80001bd6:	60a0a223          	sw	a0,1540(ra)

80001bda <inst_409>:
80001bda:	4591                	li	a1,4
80001bdc:	7555                	lui	a0,0xffff5
80001bde:	afd50513          	add	a0,a0,-1283 # ffff4afd <immx+0x452e702d>
80001be2:	952e                	add	a0,a0,a1
80001be4:	60a0a423          	sw	a0,1544(ra)

80001be8 <inst_410>:
80001be8:	333335b7          	lui	a1,0x33333
80001bec:	33258593          	add	a1,a1,818 # 33333332 <offset+0x3333326a>
80001bf0:	7555                	lui	a0,0xffff5
80001bf2:	afd50513          	add	a0,a0,-1283 # ffff4afd <immx+0x452e702d>
80001bf6:	952e                	add	a0,a0,a1
80001bf8:	60a0a623          	sw	a0,1548(ra)

80001bfc <inst_411>:
80001bfc:	666665b7          	lui	a1,0x66666
80001c00:	66558593          	add	a1,a1,1637 # 66666665 <absimm+0x21374136>
80001c04:	7555                	lui	a0,0xffff5
80001c06:	afd50513          	add	a0,a0,-1283 # ffff4afd <immx+0x452e702d>
80001c0a:	952e                	add	a0,a0,a1
80001c0c:	60a0a823          	sw	a0,1552(ra)

80001c10 <inst_412>:
80001c10:	65ad                	lui	a1,0xb
80001c12:	50358593          	add	a1,a1,1283 # b503 <offset+0xb43b>
80001c16:	7555                	lui	a0,0xffff5
80001c18:	afd50513          	add	a0,a0,-1283 # ffff4afd <immx+0x452e702d>
80001c1c:	952e                	add	a0,a0,a1
80001c1e:	60a0aa23          	sw	a0,1556(ra)

80001c22 <inst_413>:
80001c22:	555555b7          	lui	a1,0x55555
80001c26:	55658593          	add	a1,a1,1366 # 55555556 <absimm+0x10263027>
80001c2a:	7555                	lui	a0,0xffff5
80001c2c:	afd50513          	add	a0,a0,-1283 # ffff4afd <immx+0x452e702d>
80001c30:	952e                	add	a0,a0,a1
80001c32:	60a0ac23          	sw	a0,1560(ra)

80001c36 <inst_414>:
80001c36:	aaaab5b7          	lui	a1,0xaaaab
80001c3a:	aab58593          	add	a1,a1,-1365 # aaaaaaab <_end+0x2aaa506b>
80001c3e:	7555                	lui	a0,0xffff5
80001c40:	afd50513          	add	a0,a0,-1283 # ffff4afd <immx+0x452e702d>
80001c44:	952e                	add	a0,a0,a1
80001c46:	60a0ae23          	sw	a0,1564(ra)

80001c4a <inst_415>:
80001c4a:	4599                	li	a1,6
80001c4c:	7555                	lui	a0,0xffff5
80001c4e:	afd50513          	add	a0,a0,-1283 # ffff4afd <immx+0x452e702d>
80001c52:	952e                	add	a0,a0,a1
80001c54:	62a0a023          	sw	a0,1568(ra)

80001c58 <inst_416>:
80001c58:	333335b7          	lui	a1,0x33333
80001c5c:	33458593          	add	a1,a1,820 # 33333334 <offset+0x3333326c>
80001c60:	7555                	lui	a0,0xffff5
80001c62:	afd50513          	add	a0,a0,-1283 # ffff4afd <immx+0x452e702d>
80001c66:	952e                	add	a0,a0,a1
80001c68:	62a0a223          	sw	a0,1572(ra)

80001c6c <inst_417>:
80001c6c:	666665b7          	lui	a1,0x66666
80001c70:	66758593          	add	a1,a1,1639 # 66666667 <absimm+0x21374138>
80001c74:	7555                	lui	a0,0xffff5
80001c76:	afd50513          	add	a0,a0,-1283 # ffff4afd <immx+0x452e702d>
80001c7a:	952e                	add	a0,a0,a1
80001c7c:	62a0a423          	sw	a0,1576(ra)

80001c80 <inst_418>:
80001c80:	75d5                	lui	a1,0xffff5
80001c82:	afd58593          	add	a1,a1,-1283 # ffff4afd <immx+0x452e702d>
80001c86:	7555                	lui	a0,0xffff5
80001c88:	afd50513          	add	a0,a0,-1283 # ffff4afd <immx+0x452e702d>
80001c8c:	952e                	add	a0,a0,a1
80001c8e:	62a0a623          	sw	a0,1580(ra)

80001c92 <inst_419>:
80001c92:	65ad                	lui	a1,0xb
80001c94:	50558593          	add	a1,a1,1285 # b505 <offset+0xb43d>
80001c98:	7555                	lui	a0,0xffff5
80001c9a:	afd50513          	add	a0,a0,-1283 # ffff4afd <immx+0x452e702d>
80001c9e:	952e                	add	a0,a0,a1
80001ca0:	62a0a823          	sw	a0,1584(ra)

80001ca4 <inst_420>:
80001ca4:	458d                	li	a1,3
80001ca6:	652d                	lui	a0,0xb
80001ca8:	50550513          	add	a0,a0,1285 # b505 <offset+0xb43d>
80001cac:	952e                	add	a0,a0,a1
80001cae:	62a0aa23          	sw	a0,1588(ra)

80001cb2 <inst_421>:
80001cb2:	555555b7          	lui	a1,0x55555
80001cb6:	55558593          	add	a1,a1,1365 # 55555555 <absimm+0x10263026>
80001cba:	652d                	lui	a0,0xb
80001cbc:	50550513          	add	a0,a0,1285 # b505 <offset+0xb43d>
80001cc0:	952e                	add	a0,a0,a1
80001cc2:	62a0ac23          	sw	a0,1592(ra)

80001cc6 <inst_422>:
80001cc6:	aaaab5b7          	lui	a1,0xaaaab
80001cca:	aaa58593          	add	a1,a1,-1366 # aaaaaaaa <_end+0x2aaa506a>
80001cce:	652d                	lui	a0,0xb
80001cd0:	50550513          	add	a0,a0,1285 # b505 <offset+0xb43d>
80001cd4:	952e                	add	a0,a0,a1
80001cd6:	62a0ae23          	sw	a0,1596(ra)

80001cda <inst_423>:
80001cda:	4595                	li	a1,5
80001cdc:	652d                	lui	a0,0xb
80001cde:	50550513          	add	a0,a0,1285 # b505 <offset+0xb43d>
80001ce2:	952e                	add	a0,a0,a1
80001ce4:	64a0a023          	sw	a0,1600(ra)

80001ce8 <inst_424>:
80001ce8:	333335b7          	lui	a1,0x33333
80001cec:	33358593          	add	a1,a1,819 # 33333333 <offset+0x3333326b>
80001cf0:	652d                	lui	a0,0xb
80001cf2:	50550513          	add	a0,a0,1285 # b505 <offset+0xb43d>
80001cf6:	952e                	add	a0,a0,a1
80001cf8:	64a0a223          	sw	a0,1604(ra)

80001cfc <inst_425>:
80001cfc:	666665b7          	lui	a1,0x66666
80001d00:	66658593          	add	a1,a1,1638 # 66666666 <absimm+0x21374137>
80001d04:	652d                	lui	a0,0xb
80001d06:	50550513          	add	a0,a0,1285 # b505 <offset+0xb43d>
80001d0a:	952e                	add	a0,a0,a1
80001d0c:	64a0a423          	sw	a0,1608(ra)

80001d10 <inst_426>:
80001d10:	75d5                	lui	a1,0xffff5
80001d12:	afc58593          	add	a1,a1,-1284 # ffff4afc <immx+0x452e702c>
80001d16:	652d                	lui	a0,0xb
80001d18:	50550513          	add	a0,a0,1285 # b505 <offset+0xb43d>
80001d1c:	952e                	add	a0,a0,a1
80001d1e:	64a0a623          	sw	a0,1612(ra)

80001d22 <inst_427>:
80001d22:	65ad                	lui	a1,0xb
80001d24:	50458593          	add	a1,a1,1284 # b504 <offset+0xb43c>
80001d28:	652d                	lui	a0,0xb
80001d2a:	50550513          	add	a0,a0,1285 # b505 <offset+0xb43d>
80001d2e:	952e                	add	a0,a0,a1
80001d30:	64a0a823          	sw	a0,1616(ra)

80001d34 <inst_428>:
80001d34:	4589                	li	a1,2
80001d36:	652d                	lui	a0,0xb
80001d38:	50550513          	add	a0,a0,1285 # b505 <offset+0xb43d>
80001d3c:	952e                	add	a0,a0,a1
80001d3e:	64a0aa23          	sw	a0,1620(ra)

80001d42 <inst_429>:
80001d42:	555555b7          	lui	a1,0x55555
80001d46:	55458593          	add	a1,a1,1364 # 55555554 <absimm+0x10263025>
80001d4a:	652d                	lui	a0,0xb
80001d4c:	50550513          	add	a0,a0,1285 # b505 <offset+0xb43d>
80001d50:	952e                	add	a0,a0,a1
80001d52:	64a0ac23          	sw	a0,1624(ra)

80001d56 <inst_430>:
80001d56:	4581                	li	a1,0
80001d58:	652d                	lui	a0,0xb
80001d5a:	50550513          	add	a0,a0,1285 # b505 <offset+0xb43d>
80001d5e:	952e                	add	a0,a0,a1
80001d60:	64a0ae23          	sw	a0,1628(ra)

80001d64 <inst_431>:
80001d64:	4591                	li	a1,4
80001d66:	652d                	lui	a0,0xb
80001d68:	50550513          	add	a0,a0,1285 # b505 <offset+0xb43d>
80001d6c:	952e                	add	a0,a0,a1
80001d6e:	66a0a023          	sw	a0,1632(ra)

80001d72 <inst_432>:
80001d72:	333335b7          	lui	a1,0x33333
80001d76:	33258593          	add	a1,a1,818 # 33333332 <offset+0x3333326a>
80001d7a:	652d                	lui	a0,0xb
80001d7c:	50550513          	add	a0,a0,1285 # b505 <offset+0xb43d>
80001d80:	952e                	add	a0,a0,a1
80001d82:	66a0a223          	sw	a0,1636(ra)

80001d86 <inst_433>:
80001d86:	666665b7          	lui	a1,0x66666
80001d8a:	66558593          	add	a1,a1,1637 # 66666665 <absimm+0x21374136>
80001d8e:	652d                	lui	a0,0xb
80001d90:	50550513          	add	a0,a0,1285 # b505 <offset+0xb43d>
80001d94:	952e                	add	a0,a0,a1
80001d96:	66a0a423          	sw	a0,1640(ra)

80001d9a <inst_434>:
80001d9a:	65ad                	lui	a1,0xb
80001d9c:	50358593          	add	a1,a1,1283 # b503 <offset+0xb43b>
80001da0:	652d                	lui	a0,0xb
80001da2:	50550513          	add	a0,a0,1285 # b505 <offset+0xb43d>
80001da6:	952e                	add	a0,a0,a1
80001da8:	66a0a623          	sw	a0,1644(ra)

80001dac <inst_435>:
80001dac:	555555b7          	lui	a1,0x55555
80001db0:	55658593          	add	a1,a1,1366 # 55555556 <absimm+0x10263027>
80001db4:	652d                	lui	a0,0xb
80001db6:	50550513          	add	a0,a0,1285 # b505 <offset+0xb43d>
80001dba:	952e                	add	a0,a0,a1
80001dbc:	66a0a823          	sw	a0,1648(ra)

80001dc0 <inst_436>:
80001dc0:	aaaab5b7          	lui	a1,0xaaaab
80001dc4:	aab58593          	add	a1,a1,-1365 # aaaaaaab <_end+0x2aaa506b>
80001dc8:	652d                	lui	a0,0xb
80001dca:	50550513          	add	a0,a0,1285 # b505 <offset+0xb43d>
80001dce:	952e                	add	a0,a0,a1
80001dd0:	66a0aa23          	sw	a0,1652(ra)

80001dd4 <inst_437>:
80001dd4:	4599                	li	a1,6
80001dd6:	652d                	lui	a0,0xb
80001dd8:	50550513          	add	a0,a0,1285 # b505 <offset+0xb43d>
80001ddc:	952e                	add	a0,a0,a1
80001dde:	66a0ac23          	sw	a0,1656(ra)

80001de2 <inst_438>:
80001de2:	333335b7          	lui	a1,0x33333
80001de6:	33458593          	add	a1,a1,820 # 33333334 <offset+0x3333326c>
80001dea:	652d                	lui	a0,0xb
80001dec:	50550513          	add	a0,a0,1285 # b505 <offset+0xb43d>
80001df0:	952e                	add	a0,a0,a1
80001df2:	66a0ae23          	sw	a0,1660(ra)

80001df6 <inst_439>:
80001df6:	666665b7          	lui	a1,0x66666
80001dfa:	66758593          	add	a1,a1,1639 # 66666667 <absimm+0x21374138>
80001dfe:	652d                	lui	a0,0xb
80001e00:	50550513          	add	a0,a0,1285 # b505 <offset+0xb43d>
80001e04:	952e                	add	a0,a0,a1
80001e06:	68a0a023          	sw	a0,1664(ra)

80001e0a <inst_440>:
80001e0a:	75d5                	lui	a1,0xffff5
80001e0c:	afd58593          	add	a1,a1,-1283 # ffff4afd <immx+0x452e702d>
80001e10:	652d                	lui	a0,0xb
80001e12:	50550513          	add	a0,a0,1285 # b505 <offset+0xb43d>
80001e16:	952e                	add	a0,a0,a1
80001e18:	68a0a223          	sw	a0,1668(ra)

80001e1c <inst_441>:
80001e1c:	65ad                	lui	a1,0xb
80001e1e:	50558593          	add	a1,a1,1285 # b505 <offset+0xb43d>
80001e22:	652d                	lui	a0,0xb
80001e24:	50550513          	add	a0,a0,1285 # b505 <offset+0xb43d>
80001e28:	952e                	add	a0,a0,a1
80001e2a:	68a0a423          	sw	a0,1672(ra)

80001e2e <inst_442>:
80001e2e:	555555b7          	lui	a1,0x55555
80001e32:	55458593          	add	a1,a1,1364 # 55555554 <absimm+0x10263025>
80001e36:	4501                	li	a0,0
80001e38:	952e                	add	a0,a0,a1
80001e3a:	68a0a623          	sw	a0,1676(ra)

80001e3e <inst_443>:
80001e3e:	4581                	li	a1,0
80001e40:	4501                	li	a0,0
80001e42:	952e                	add	a0,a0,a1
80001e44:	68a0a823          	sw	a0,1680(ra)

80001e48 <inst_444>:
80001e48:	4591                	li	a1,4
80001e4a:	4501                	li	a0,0
80001e4c:	952e                	add	a0,a0,a1
80001e4e:	68a0aa23          	sw	a0,1684(ra)

80001e52 <inst_445>:
80001e52:	333335b7          	lui	a1,0x33333
80001e56:	33258593          	add	a1,a1,818 # 33333332 <offset+0x3333326a>
80001e5a:	4501                	li	a0,0
80001e5c:	952e                	add	a0,a0,a1
80001e5e:	68a0ac23          	sw	a0,1688(ra)

80001e62 <inst_446>:
80001e62:	666665b7          	lui	a1,0x66666
80001e66:	66558593          	add	a1,a1,1637 # 66666665 <absimm+0x21374136>
80001e6a:	4501                	li	a0,0
80001e6c:	952e                	add	a0,a0,a1
80001e6e:	68a0ae23          	sw	a0,1692(ra)

80001e72 <inst_447>:
80001e72:	65ad                	lui	a1,0xb
80001e74:	50358593          	add	a1,a1,1283 # b503 <offset+0xb43b>
80001e78:	4501                	li	a0,0
80001e7a:	952e                	add	a0,a0,a1
80001e7c:	6aa0a023          	sw	a0,1696(ra)

80001e80 <inst_448>:
80001e80:	555555b7          	lui	a1,0x55555
80001e84:	55658593          	add	a1,a1,1366 # 55555556 <absimm+0x10263027>
80001e88:	4501                	li	a0,0
80001e8a:	952e                	add	a0,a0,a1
80001e8c:	6aa0a223          	sw	a0,1700(ra)

80001e90 <inst_449>:
80001e90:	aaaab5b7          	lui	a1,0xaaaab
80001e94:	aab58593          	add	a1,a1,-1365 # aaaaaaab <_end+0x2aaa506b>
80001e98:	4501                	li	a0,0
80001e9a:	952e                	add	a0,a0,a1
80001e9c:	6aa0a423          	sw	a0,1704(ra)

80001ea0 <inst_450>:
80001ea0:	4599                	li	a1,6
80001ea2:	4501                	li	a0,0
80001ea4:	952e                	add	a0,a0,a1
80001ea6:	6aa0a623          	sw	a0,1708(ra)

80001eaa <inst_451>:
80001eaa:	333335b7          	lui	a1,0x33333
80001eae:	33458593          	add	a1,a1,820 # 33333334 <offset+0x3333326c>
80001eb2:	4501                	li	a0,0
80001eb4:	952e                	add	a0,a0,a1
80001eb6:	6aa0a823          	sw	a0,1712(ra)

80001eba <inst_452>:
80001eba:	666665b7          	lui	a1,0x66666
80001ebe:	66758593          	add	a1,a1,1639 # 66666667 <absimm+0x21374138>
80001ec2:	4501                	li	a0,0
80001ec4:	952e                	add	a0,a0,a1
80001ec6:	6aa0aa23          	sw	a0,1716(ra)

80001eca <inst_453>:
80001eca:	75d5                	lui	a1,0xffff5
80001ecc:	afd58593          	add	a1,a1,-1283 # ffff4afd <immx+0x452e702d>
80001ed0:	4501                	li	a0,0
80001ed2:	952e                	add	a0,a0,a1
80001ed4:	6aa0ac23          	sw	a0,1720(ra)

80001ed8 <inst_454>:
80001ed8:	65ad                	lui	a1,0xb
80001eda:	50558593          	add	a1,a1,1285 # b505 <offset+0xb43d>
80001ede:	4501                	li	a0,0
80001ee0:	952e                	add	a0,a0,a1
80001ee2:	6aa0ae23          	sw	a0,1724(ra)

80001ee6 <inst_455>:
80001ee6:	458d                	li	a1,3
80001ee8:	4511                	li	a0,4
80001eea:	952e                	add	a0,a0,a1
80001eec:	6ca0a023          	sw	a0,1728(ra)

80001ef0 <inst_456>:
80001ef0:	555555b7          	lui	a1,0x55555
80001ef4:	55558593          	add	a1,a1,1365 # 55555555 <absimm+0x10263026>
80001ef8:	4511                	li	a0,4
80001efa:	952e                	add	a0,a0,a1
80001efc:	6ca0a223          	sw	a0,1732(ra)

80001f00 <inst_457>:
80001f00:	aaaab5b7          	lui	a1,0xaaaab
80001f04:	aaa58593          	add	a1,a1,-1366 # aaaaaaaa <_end+0x2aaa506a>
80001f08:	4511                	li	a0,4
80001f0a:	952e                	add	a0,a0,a1
80001f0c:	6ca0a423          	sw	a0,1736(ra)

80001f10 <inst_458>:
80001f10:	4595                	li	a1,5
80001f12:	4511                	li	a0,4
80001f14:	952e                	add	a0,a0,a1
80001f16:	6ca0a623          	sw	a0,1740(ra)

80001f1a <inst_459>:
80001f1a:	333335b7          	lui	a1,0x33333
80001f1e:	33358593          	add	a1,a1,819 # 33333333 <offset+0x3333326b>
80001f22:	4511                	li	a0,4
80001f24:	952e                	add	a0,a0,a1
80001f26:	6ca0a823          	sw	a0,1744(ra)

80001f2a <inst_460>:
80001f2a:	666665b7          	lui	a1,0x66666
80001f2e:	66658593          	add	a1,a1,1638 # 66666666 <absimm+0x21374137>
80001f32:	4511                	li	a0,4
80001f34:	952e                	add	a0,a0,a1
80001f36:	6ca0aa23          	sw	a0,1748(ra)

80001f3a <inst_461>:
80001f3a:	75d5                	lui	a1,0xffff5
80001f3c:	afc58593          	add	a1,a1,-1284 # ffff4afc <immx+0x452e702c>
80001f40:	4511                	li	a0,4
80001f42:	952e                	add	a0,a0,a1
80001f44:	6ca0ac23          	sw	a0,1752(ra)

80001f48 <inst_462>:
80001f48:	65ad                	lui	a1,0xb
80001f4a:	50458593          	add	a1,a1,1284 # b504 <offset+0xb43c>
80001f4e:	4511                	li	a0,4
80001f50:	952e                	add	a0,a0,a1
80001f52:	6ca0ae23          	sw	a0,1756(ra)

80001f56 <inst_463>:
80001f56:	4589                	li	a1,2
80001f58:	4511                	li	a0,4
80001f5a:	952e                	add	a0,a0,a1
80001f5c:	6ea0a023          	sw	a0,1760(ra)

80001f60 <inst_464>:
80001f60:	555555b7          	lui	a1,0x55555
80001f64:	55458593          	add	a1,a1,1364 # 55555554 <absimm+0x10263025>
80001f68:	4511                	li	a0,4
80001f6a:	952e                	add	a0,a0,a1
80001f6c:	6ea0a223          	sw	a0,1764(ra)

80001f70 <inst_465>:
80001f70:	4581                	li	a1,0
80001f72:	4511                	li	a0,4
80001f74:	952e                	add	a0,a0,a1
80001f76:	6ea0a423          	sw	a0,1768(ra)

80001f7a <inst_466>:
80001f7a:	4591                	li	a1,4
80001f7c:	4511                	li	a0,4
80001f7e:	952e                	add	a0,a0,a1
80001f80:	6ea0a623          	sw	a0,1772(ra)

80001f84 <inst_467>:
80001f84:	333335b7          	lui	a1,0x33333
80001f88:	33258593          	add	a1,a1,818 # 33333332 <offset+0x3333326a>
80001f8c:	4511                	li	a0,4
80001f8e:	952e                	add	a0,a0,a1
80001f90:	6ea0a823          	sw	a0,1776(ra)

80001f94 <inst_468>:
80001f94:	666665b7          	lui	a1,0x66666
80001f98:	66558593          	add	a1,a1,1637 # 66666665 <absimm+0x21374136>
80001f9c:	4511                	li	a0,4
80001f9e:	952e                	add	a0,a0,a1
80001fa0:	6ea0aa23          	sw	a0,1780(ra)

80001fa4 <inst_469>:
80001fa4:	65ad                	lui	a1,0xb
80001fa6:	50358593          	add	a1,a1,1283 # b503 <offset+0xb43b>
80001faa:	4511                	li	a0,4
80001fac:	952e                	add	a0,a0,a1
80001fae:	6ea0ac23          	sw	a0,1784(ra)

80001fb2 <inst_470>:
80001fb2:	555555b7          	lui	a1,0x55555
80001fb6:	55658593          	add	a1,a1,1366 # 55555556 <absimm+0x10263027>
80001fba:	4511                	li	a0,4
80001fbc:	952e                	add	a0,a0,a1
80001fbe:	6ea0ae23          	sw	a0,1788(ra)

80001fc2 <inst_471>:
80001fc2:	aaaab5b7          	lui	a1,0xaaaab
80001fc6:	aab58593          	add	a1,a1,-1365 # aaaaaaab <_end+0x2aaa506b>
80001fca:	4511                	li	a0,4
80001fcc:	952e                	add	a0,a0,a1
80001fce:	70a0a023          	sw	a0,1792(ra)

80001fd2 <inst_472>:
80001fd2:	4599                	li	a1,6
80001fd4:	4511                	li	a0,4
80001fd6:	952e                	add	a0,a0,a1
80001fd8:	70a0a223          	sw	a0,1796(ra)

80001fdc <inst_473>:
80001fdc:	333335b7          	lui	a1,0x33333
80001fe0:	33458593          	add	a1,a1,820 # 33333334 <offset+0x3333326c>
80001fe4:	4511                	li	a0,4
80001fe6:	952e                	add	a0,a0,a1
80001fe8:	70a0a423          	sw	a0,1800(ra)

80001fec <inst_474>:
80001fec:	666665b7          	lui	a1,0x66666
80001ff0:	66758593          	add	a1,a1,1639 # 66666667 <absimm+0x21374138>
80001ff4:	4511                	li	a0,4
80001ff6:	952e                	add	a0,a0,a1
80001ff8:	70a0a623          	sw	a0,1804(ra)

80001ffc <inst_475>:
80001ffc:	75d5                	lui	a1,0xffff5
80001ffe:	afd58593          	add	a1,a1,-1283 # ffff4afd <immx+0x452e702d>
80002002:	4511                	li	a0,4
80002004:	952e                	add	a0,a0,a1
80002006:	70a0a823          	sw	a0,1808(ra)

8000200a <inst_476>:
8000200a:	65ad                	lui	a1,0xb
8000200c:	50558593          	add	a1,a1,1285 # b505 <offset+0xb43d>
80002010:	4511                	li	a0,4
80002012:	952e                	add	a0,a0,a1
80002014:	70a0aa23          	sw	a0,1812(ra)

80002018 <inst_477>:
80002018:	458d                	li	a1,3
8000201a:	33333537          	lui	a0,0x33333
8000201e:	33250513          	add	a0,a0,818 # 33333332 <offset+0x3333326a>
80002022:	952e                	add	a0,a0,a1
80002024:	70a0ac23          	sw	a0,1816(ra)

80002028 <inst_478>:
80002028:	555555b7          	lui	a1,0x55555
8000202c:	55558593          	add	a1,a1,1365 # 55555555 <absimm+0x10263026>
80002030:	33333537          	lui	a0,0x33333
80002034:	33250513          	add	a0,a0,818 # 33333332 <offset+0x3333326a>
80002038:	952e                	add	a0,a0,a1
8000203a:	70a0ae23          	sw	a0,1820(ra)

8000203e <inst_479>:
8000203e:	aaaab5b7          	lui	a1,0xaaaab
80002042:	aaa58593          	add	a1,a1,-1366 # aaaaaaaa <_end+0x2aaa506a>
80002046:	33333537          	lui	a0,0x33333
8000204a:	33250513          	add	a0,a0,818 # 33333332 <offset+0x3333326a>
8000204e:	952e                	add	a0,a0,a1
80002050:	72a0a023          	sw	a0,1824(ra)

80002054 <inst_480>:
80002054:	4595                	li	a1,5
80002056:	33333537          	lui	a0,0x33333
8000205a:	33250513          	add	a0,a0,818 # 33333332 <offset+0x3333326a>
8000205e:	952e                	add	a0,a0,a1
80002060:	72a0a223          	sw	a0,1828(ra)

80002064 <inst_481>:
80002064:	333335b7          	lui	a1,0x33333
80002068:	33358593          	add	a1,a1,819 # 33333333 <offset+0x3333326b>
8000206c:	33333537          	lui	a0,0x33333
80002070:	33250513          	add	a0,a0,818 # 33333332 <offset+0x3333326a>
80002074:	952e                	add	a0,a0,a1
80002076:	72a0a423          	sw	a0,1832(ra)

8000207a <inst_482>:
8000207a:	666665b7          	lui	a1,0x66666
8000207e:	66658593          	add	a1,a1,1638 # 66666666 <absimm+0x21374137>
80002082:	33333537          	lui	a0,0x33333
80002086:	33250513          	add	a0,a0,818 # 33333332 <offset+0x3333326a>
8000208a:	952e                	add	a0,a0,a1
8000208c:	72a0a623          	sw	a0,1836(ra)

80002090 <inst_483>:
80002090:	75d5                	lui	a1,0xffff5
80002092:	afc58593          	add	a1,a1,-1284 # ffff4afc <immx+0x452e702c>
80002096:	33333537          	lui	a0,0x33333
8000209a:	33250513          	add	a0,a0,818 # 33333332 <offset+0x3333326a>
8000209e:	952e                	add	a0,a0,a1
800020a0:	72a0a823          	sw	a0,1840(ra)

800020a4 <inst_484>:
800020a4:	65ad                	lui	a1,0xb
800020a6:	50458593          	add	a1,a1,1284 # b504 <offset+0xb43c>
800020aa:	33333537          	lui	a0,0x33333
800020ae:	33250513          	add	a0,a0,818 # 33333332 <offset+0x3333326a>
800020b2:	952e                	add	a0,a0,a1
800020b4:	72a0aa23          	sw	a0,1844(ra)

800020b8 <inst_485>:
800020b8:	4589                	li	a1,2
800020ba:	33333537          	lui	a0,0x33333
800020be:	33250513          	add	a0,a0,818 # 33333332 <offset+0x3333326a>
800020c2:	952e                	add	a0,a0,a1
800020c4:	72a0ac23          	sw	a0,1848(ra)

800020c8 <inst_486>:
800020c8:	555555b7          	lui	a1,0x55555
800020cc:	55458593          	add	a1,a1,1364 # 55555554 <absimm+0x10263025>
800020d0:	33333537          	lui	a0,0x33333
800020d4:	33250513          	add	a0,a0,818 # 33333332 <offset+0x3333326a>
800020d8:	952e                	add	a0,a0,a1
800020da:	72a0ae23          	sw	a0,1852(ra)

800020de <inst_487>:
800020de:	4581                	li	a1,0
800020e0:	33333537          	lui	a0,0x33333
800020e4:	33250513          	add	a0,a0,818 # 33333332 <offset+0x3333326a>
800020e8:	952e                	add	a0,a0,a1
800020ea:	74a0a023          	sw	a0,1856(ra)

800020ee <inst_488>:
800020ee:	4591                	li	a1,4
800020f0:	33333537          	lui	a0,0x33333
800020f4:	33250513          	add	a0,a0,818 # 33333332 <offset+0x3333326a>
800020f8:	952e                	add	a0,a0,a1
800020fa:	74a0a223          	sw	a0,1860(ra)

800020fe <inst_489>:
800020fe:	333335b7          	lui	a1,0x33333
80002102:	33258593          	add	a1,a1,818 # 33333332 <offset+0x3333326a>
80002106:	33333537          	lui	a0,0x33333
8000210a:	33250513          	add	a0,a0,818 # 33333332 <offset+0x3333326a>
8000210e:	952e                	add	a0,a0,a1
80002110:	74a0a423          	sw	a0,1864(ra)

80002114 <inst_490>:
80002114:	666665b7          	lui	a1,0x66666
80002118:	66558593          	add	a1,a1,1637 # 66666665 <absimm+0x21374136>
8000211c:	33333537          	lui	a0,0x33333
80002120:	33250513          	add	a0,a0,818 # 33333332 <offset+0x3333326a>
80002124:	952e                	add	a0,a0,a1
80002126:	74a0a623          	sw	a0,1868(ra)

8000212a <inst_491>:
8000212a:	65ad                	lui	a1,0xb
8000212c:	50358593          	add	a1,a1,1283 # b503 <offset+0xb43b>
80002130:	33333537          	lui	a0,0x33333
80002134:	33250513          	add	a0,a0,818 # 33333332 <offset+0x3333326a>
80002138:	952e                	add	a0,a0,a1
8000213a:	74a0a823          	sw	a0,1872(ra)

8000213e <inst_492>:
8000213e:	555555b7          	lui	a1,0x55555
80002142:	55658593          	add	a1,a1,1366 # 55555556 <absimm+0x10263027>
80002146:	33333537          	lui	a0,0x33333
8000214a:	33250513          	add	a0,a0,818 # 33333332 <offset+0x3333326a>
8000214e:	952e                	add	a0,a0,a1
80002150:	74a0aa23          	sw	a0,1876(ra)

80002154 <inst_493>:
80002154:	aaaab5b7          	lui	a1,0xaaaab
80002158:	aab58593          	add	a1,a1,-1365 # aaaaaaab <_end+0x2aaa506b>
8000215c:	33333537          	lui	a0,0x33333
80002160:	33250513          	add	a0,a0,818 # 33333332 <offset+0x3333326a>
80002164:	952e                	add	a0,a0,a1
80002166:	74a0ac23          	sw	a0,1880(ra)

8000216a <inst_494>:
8000216a:	4599                	li	a1,6
8000216c:	33333537          	lui	a0,0x33333
80002170:	33250513          	add	a0,a0,818 # 33333332 <offset+0x3333326a>
80002174:	952e                	add	a0,a0,a1
80002176:	74a0ae23          	sw	a0,1884(ra)

8000217a <inst_495>:
8000217a:	333335b7          	lui	a1,0x33333
8000217e:	33458593          	add	a1,a1,820 # 33333334 <offset+0x3333326c>
80002182:	33333537          	lui	a0,0x33333
80002186:	33250513          	add	a0,a0,818 # 33333332 <offset+0x3333326a>
8000218a:	952e                	add	a0,a0,a1
8000218c:	76a0a023          	sw	a0,1888(ra)

80002190 <inst_496>:
80002190:	666665b7          	lui	a1,0x66666
80002194:	66758593          	add	a1,a1,1639 # 66666667 <absimm+0x21374138>
80002198:	33333537          	lui	a0,0x33333
8000219c:	33250513          	add	a0,a0,818 # 33333332 <offset+0x3333326a>
800021a0:	952e                	add	a0,a0,a1
800021a2:	76a0a223          	sw	a0,1892(ra)

800021a6 <inst_497>:
800021a6:	75d5                	lui	a1,0xffff5
800021a8:	afd58593          	add	a1,a1,-1283 # ffff4afd <immx+0x452e702d>
800021ac:	33333537          	lui	a0,0x33333
800021b0:	33250513          	add	a0,a0,818 # 33333332 <offset+0x3333326a>
800021b4:	952e                	add	a0,a0,a1
800021b6:	76a0a423          	sw	a0,1896(ra)

800021ba <inst_498>:
800021ba:	65ad                	lui	a1,0xb
800021bc:	50558593          	add	a1,a1,1285 # b505 <offset+0xb43d>
800021c0:	33333537          	lui	a0,0x33333
800021c4:	33250513          	add	a0,a0,818 # 33333332 <offset+0x3333326a>
800021c8:	952e                	add	a0,a0,a1
800021ca:	76a0a623          	sw	a0,1900(ra)

800021ce <inst_499>:
800021ce:	458d                	li	a1,3
800021d0:	66666537          	lui	a0,0x66666
800021d4:	66550513          	add	a0,a0,1637 # 66666665 <absimm+0x21374136>
800021d8:	952e                	add	a0,a0,a1
800021da:	76a0a823          	sw	a0,1904(ra)

800021de <inst_500>:
800021de:	555555b7          	lui	a1,0x55555
800021e2:	55558593          	add	a1,a1,1365 # 55555555 <absimm+0x10263026>
800021e6:	66666537          	lui	a0,0x66666
800021ea:	66550513          	add	a0,a0,1637 # 66666665 <absimm+0x21374136>
800021ee:	952e                	add	a0,a0,a1
800021f0:	76a0aa23          	sw	a0,1908(ra)

800021f4 <inst_501>:
800021f4:	aaaab5b7          	lui	a1,0xaaaab
800021f8:	aaa58593          	add	a1,a1,-1366 # aaaaaaaa <_end+0x2aaa506a>
800021fc:	66666537          	lui	a0,0x66666
80002200:	66550513          	add	a0,a0,1637 # 66666665 <absimm+0x21374136>
80002204:	952e                	add	a0,a0,a1
80002206:	76a0ac23          	sw	a0,1912(ra)

8000220a <inst_502>:
8000220a:	4595                	li	a1,5
8000220c:	66666537          	lui	a0,0x66666
80002210:	66550513          	add	a0,a0,1637 # 66666665 <absimm+0x21374136>
80002214:	952e                	add	a0,a0,a1
80002216:	76a0ae23          	sw	a0,1916(ra)

8000221a <inst_503>:
8000221a:	333335b7          	lui	a1,0x33333
8000221e:	33358593          	add	a1,a1,819 # 33333333 <offset+0x3333326b>
80002222:	66666537          	lui	a0,0x66666
80002226:	66550513          	add	a0,a0,1637 # 66666665 <absimm+0x21374136>
8000222a:	952e                	add	a0,a0,a1
8000222c:	78a0a023          	sw	a0,1920(ra)

80002230 <inst_504>:
80002230:	666665b7          	lui	a1,0x66666
80002234:	66658593          	add	a1,a1,1638 # 66666666 <absimm+0x21374137>
80002238:	66666537          	lui	a0,0x66666
8000223c:	66550513          	add	a0,a0,1637 # 66666665 <absimm+0x21374136>
80002240:	952e                	add	a0,a0,a1
80002242:	78a0a223          	sw	a0,1924(ra)

80002246 <inst_505>:
80002246:	75d5                	lui	a1,0xffff5
80002248:	afc58593          	add	a1,a1,-1284 # ffff4afc <immx+0x452e702c>
8000224c:	66666537          	lui	a0,0x66666
80002250:	66550513          	add	a0,a0,1637 # 66666665 <absimm+0x21374136>
80002254:	952e                	add	a0,a0,a1
80002256:	78a0a423          	sw	a0,1928(ra)

8000225a <inst_506>:
8000225a:	65ad                	lui	a1,0xb
8000225c:	50458593          	add	a1,a1,1284 # b504 <offset+0xb43c>
80002260:	66666537          	lui	a0,0x66666
80002264:	66550513          	add	a0,a0,1637 # 66666665 <absimm+0x21374136>
80002268:	952e                	add	a0,a0,a1
8000226a:	78a0a623          	sw	a0,1932(ra)

8000226e <inst_507>:
8000226e:	4589                	li	a1,2
80002270:	66666537          	lui	a0,0x66666
80002274:	66550513          	add	a0,a0,1637 # 66666665 <absimm+0x21374136>
80002278:	952e                	add	a0,a0,a1
8000227a:	78a0a823          	sw	a0,1936(ra)

8000227e <inst_508>:
8000227e:	555555b7          	lui	a1,0x55555
80002282:	55458593          	add	a1,a1,1364 # 55555554 <absimm+0x10263025>
80002286:	66666537          	lui	a0,0x66666
8000228a:	66550513          	add	a0,a0,1637 # 66666665 <absimm+0x21374136>
8000228e:	952e                	add	a0,a0,a1
80002290:	78a0aa23          	sw	a0,1940(ra)

80002294 <inst_509>:
80002294:	4581                	li	a1,0
80002296:	66666537          	lui	a0,0x66666
8000229a:	66550513          	add	a0,a0,1637 # 66666665 <absimm+0x21374136>
8000229e:	952e                	add	a0,a0,a1
800022a0:	78a0ac23          	sw	a0,1944(ra)

800022a4 <inst_510>:
800022a4:	4591                	li	a1,4
800022a6:	66666537          	lui	a0,0x66666
800022aa:	66550513          	add	a0,a0,1637 # 66666665 <absimm+0x21374136>
800022ae:	952e                	add	a0,a0,a1
800022b0:	78a0ae23          	sw	a0,1948(ra)

800022b4 <inst_511>:
800022b4:	333335b7          	lui	a1,0x33333
800022b8:	33258593          	add	a1,a1,818 # 33333332 <offset+0x3333326a>
800022bc:	66666537          	lui	a0,0x66666
800022c0:	66550513          	add	a0,a0,1637 # 66666665 <absimm+0x21374136>
800022c4:	952e                	add	a0,a0,a1
800022c6:	7aa0a023          	sw	a0,1952(ra)

800022ca <inst_512>:
800022ca:	666665b7          	lui	a1,0x66666
800022ce:	66558593          	add	a1,a1,1637 # 66666665 <absimm+0x21374136>
800022d2:	66666537          	lui	a0,0x66666
800022d6:	66550513          	add	a0,a0,1637 # 66666665 <absimm+0x21374136>
800022da:	952e                	add	a0,a0,a1
800022dc:	7aa0a223          	sw	a0,1956(ra)

800022e0 <inst_513>:
800022e0:	65ad                	lui	a1,0xb
800022e2:	50358593          	add	a1,a1,1283 # b503 <offset+0xb43b>
800022e6:	66666537          	lui	a0,0x66666
800022ea:	66550513          	add	a0,a0,1637 # 66666665 <absimm+0x21374136>
800022ee:	952e                	add	a0,a0,a1
800022f0:	7aa0a423          	sw	a0,1960(ra)

800022f4 <inst_514>:
800022f4:	555555b7          	lui	a1,0x55555
800022f8:	55658593          	add	a1,a1,1366 # 55555556 <absimm+0x10263027>
800022fc:	66666537          	lui	a0,0x66666
80002300:	66550513          	add	a0,a0,1637 # 66666665 <absimm+0x21374136>
80002304:	952e                	add	a0,a0,a1
80002306:	7aa0a623          	sw	a0,1964(ra)

8000230a <inst_515>:
8000230a:	aaaab5b7          	lui	a1,0xaaaab
8000230e:	aab58593          	add	a1,a1,-1365 # aaaaaaab <_end+0x2aaa506b>
80002312:	66666537          	lui	a0,0x66666
80002316:	66550513          	add	a0,a0,1637 # 66666665 <absimm+0x21374136>
8000231a:	952e                	add	a0,a0,a1
8000231c:	7aa0a823          	sw	a0,1968(ra)

80002320 <inst_516>:
80002320:	4599                	li	a1,6
80002322:	66666537          	lui	a0,0x66666
80002326:	66550513          	add	a0,a0,1637 # 66666665 <absimm+0x21374136>
8000232a:	952e                	add	a0,a0,a1
8000232c:	7aa0aa23          	sw	a0,1972(ra)

80002330 <inst_517>:
80002330:	333335b7          	lui	a1,0x33333
80002334:	33458593          	add	a1,a1,820 # 33333334 <offset+0x3333326c>
80002338:	66666537          	lui	a0,0x66666
8000233c:	66550513          	add	a0,a0,1637 # 66666665 <absimm+0x21374136>
80002340:	952e                	add	a0,a0,a1
80002342:	7aa0ac23          	sw	a0,1976(ra)

80002346 <inst_518>:
80002346:	666665b7          	lui	a1,0x66666
8000234a:	66758593          	add	a1,a1,1639 # 66666667 <absimm+0x21374138>
8000234e:	66666537          	lui	a0,0x66666
80002352:	66550513          	add	a0,a0,1637 # 66666665 <absimm+0x21374136>
80002356:	952e                	add	a0,a0,a1
80002358:	7aa0ae23          	sw	a0,1980(ra)

8000235c <inst_519>:
8000235c:	75d5                	lui	a1,0xffff5
8000235e:	afd58593          	add	a1,a1,-1283 # ffff4afd <immx+0x452e702d>
80002362:	66666537          	lui	a0,0x66666
80002366:	66550513          	add	a0,a0,1637 # 66666665 <absimm+0x21374136>
8000236a:	952e                	add	a0,a0,a1
8000236c:	7ca0a023          	sw	a0,1984(ra)

80002370 <inst_520>:
80002370:	65ad                	lui	a1,0xb
80002372:	50558593          	add	a1,a1,1285 # b505 <offset+0xb43d>
80002376:	66666537          	lui	a0,0x66666
8000237a:	66550513          	add	a0,a0,1637 # 66666665 <absimm+0x21374136>
8000237e:	952e                	add	a0,a0,a1
80002380:	7ca0a223          	sw	a0,1988(ra)

80002384 <inst_521>:
80002384:	458d                	li	a1,3
80002386:	652d                	lui	a0,0xb
80002388:	50350513          	add	a0,a0,1283 # b503 <offset+0xb43b>
8000238c:	952e                	add	a0,a0,a1
8000238e:	7ca0a423          	sw	a0,1992(ra)

80002392 <inst_522>:
80002392:	555555b7          	lui	a1,0x55555
80002396:	55558593          	add	a1,a1,1365 # 55555555 <absimm+0x10263026>
8000239a:	652d                	lui	a0,0xb
8000239c:	50350513          	add	a0,a0,1283 # b503 <offset+0xb43b>
800023a0:	952e                	add	a0,a0,a1
800023a2:	7ca0a623          	sw	a0,1996(ra)

800023a6 <inst_523>:
800023a6:	aaaab5b7          	lui	a1,0xaaaab
800023aa:	aaa58593          	add	a1,a1,-1366 # aaaaaaaa <_end+0x2aaa506a>
800023ae:	652d                	lui	a0,0xb
800023b0:	50350513          	add	a0,a0,1283 # b503 <offset+0xb43b>
800023b4:	952e                	add	a0,a0,a1
800023b6:	7ca0a823          	sw	a0,2000(ra)

800023ba <inst_524>:
800023ba:	4595                	li	a1,5
800023bc:	652d                	lui	a0,0xb
800023be:	50350513          	add	a0,a0,1283 # b503 <offset+0xb43b>
800023c2:	952e                	add	a0,a0,a1
800023c4:	7ca0aa23          	sw	a0,2004(ra)

800023c8 <inst_525>:
800023c8:	333335b7          	lui	a1,0x33333
800023cc:	33358593          	add	a1,a1,819 # 33333333 <offset+0x3333326b>
800023d0:	652d                	lui	a0,0xb
800023d2:	50350513          	add	a0,a0,1283 # b503 <offset+0xb43b>
800023d6:	952e                	add	a0,a0,a1
800023d8:	7ca0ac23          	sw	a0,2008(ra)

800023dc <inst_526>:
800023dc:	666665b7          	lui	a1,0x66666
800023e0:	66658593          	add	a1,a1,1638 # 66666666 <absimm+0x21374137>
800023e4:	652d                	lui	a0,0xb
800023e6:	50350513          	add	a0,a0,1283 # b503 <offset+0xb43b>
800023ea:	952e                	add	a0,a0,a1
800023ec:	7ca0ae23          	sw	a0,2012(ra)

800023f0 <inst_527>:
800023f0:	75d5                	lui	a1,0xffff5
800023f2:	afc58593          	add	a1,a1,-1284 # ffff4afc <immx+0x452e702c>
800023f6:	652d                	lui	a0,0xb
800023f8:	50350513          	add	a0,a0,1283 # b503 <offset+0xb43b>
800023fc:	952e                	add	a0,a0,a1
800023fe:	7ea0a023          	sw	a0,2016(ra)

80002402 <inst_528>:
80002402:	65ad                	lui	a1,0xb
80002404:	50458593          	add	a1,a1,1284 # b504 <offset+0xb43c>
80002408:	652d                	lui	a0,0xb
8000240a:	50350513          	add	a0,a0,1283 # b503 <offset+0xb43b>
8000240e:	952e                	add	a0,a0,a1
80002410:	7ea0a223          	sw	a0,2020(ra)

80002414 <inst_529>:
80002414:	4589                	li	a1,2
80002416:	652d                	lui	a0,0xb
80002418:	50350513          	add	a0,a0,1283 # b503 <offset+0xb43b>
8000241c:	952e                	add	a0,a0,a1
8000241e:	7ea0a423          	sw	a0,2024(ra)

80002422 <inst_530>:
80002422:	555555b7          	lui	a1,0x55555
80002426:	55458593          	add	a1,a1,1364 # 55555554 <absimm+0x10263025>
8000242a:	652d                	lui	a0,0xb
8000242c:	50350513          	add	a0,a0,1283 # b503 <offset+0xb43b>
80002430:	952e                	add	a0,a0,a1
80002432:	7ea0a623          	sw	a0,2028(ra)

80002436 <inst_531>:
80002436:	4581                	li	a1,0
80002438:	652d                	lui	a0,0xb
8000243a:	50350513          	add	a0,a0,1283 # b503 <offset+0xb43b>
8000243e:	952e                	add	a0,a0,a1
80002440:	7ea0a823          	sw	a0,2032(ra)

80002444 <inst_532>:
80002444:	4591                	li	a1,4
80002446:	652d                	lui	a0,0xb
80002448:	50350513          	add	a0,a0,1283 # b503 <offset+0xb43b>
8000244c:	952e                	add	a0,a0,a1
8000244e:	7ea0aa23          	sw	a0,2036(ra)

80002452 <inst_533>:
80002452:	333335b7          	lui	a1,0x33333
80002456:	33258593          	add	a1,a1,818 # 33333332 <offset+0x3333326a>
8000245a:	652d                	lui	a0,0xb
8000245c:	50350513          	add	a0,a0,1283 # b503 <offset+0xb43b>
80002460:	952e                	add	a0,a0,a1
80002462:	7ea0ac23          	sw	a0,2040(ra)

80002466 <inst_534>:
80002466:	666665b7          	lui	a1,0x66666
8000246a:	66558593          	add	a1,a1,1637 # 66666665 <absimm+0x21374136>
8000246e:	652d                	lui	a0,0xb
80002470:	50350513          	add	a0,a0,1283 # b503 <offset+0xb43b>
80002474:	952e                	add	a0,a0,a1
80002476:	7ea0ae23          	sw	a0,2044(ra)
8000247a:	00000013          	nop
8000247e:	0001                	nop
80002480:	00003097          	auipc	ra,0x3
80002484:	4f008093          	add	ra,ra,1264 # 80005970 <signature_x1_1>
80002488:	00000013          	nop
8000248c:	00000013          	nop
80002490:	00000013          	nop
80002494:	00000013          	nop
80002498:	00000013          	nop
8000249c:	00000013          	nop

800024a0 <inst_535>:
800024a0:	65ad                	lui	a1,0xb
800024a2:	50358593          	add	a1,a1,1283 # b503 <offset+0xb43b>
800024a6:	652d                	lui	a0,0xb
800024a8:	50350513          	add	a0,a0,1283 # b503 <offset+0xb43b>
800024ac:	952e                	add	a0,a0,a1
800024ae:	00a0a023          	sw	a0,0(ra)

800024b2 <inst_536>:
800024b2:	555555b7          	lui	a1,0x55555
800024b6:	55658593          	add	a1,a1,1366 # 55555556 <absimm+0x10263027>
800024ba:	652d                	lui	a0,0xb
800024bc:	50350513          	add	a0,a0,1283 # b503 <offset+0xb43b>
800024c0:	952e                	add	a0,a0,a1
800024c2:	00a0a223          	sw	a0,4(ra)

800024c6 <inst_537>:
800024c6:	aaaab5b7          	lui	a1,0xaaaab
800024ca:	aab58593          	add	a1,a1,-1365 # aaaaaaab <_end+0x2aaa506b>
800024ce:	652d                	lui	a0,0xb
800024d0:	50350513          	add	a0,a0,1283 # b503 <offset+0xb43b>
800024d4:	952e                	add	a0,a0,a1
800024d6:	00a0a423          	sw	a0,8(ra)

800024da <inst_538>:
800024da:	4599                	li	a1,6
800024dc:	652d                	lui	a0,0xb
800024de:	50350513          	add	a0,a0,1283 # b503 <offset+0xb43b>
800024e2:	952e                	add	a0,a0,a1
800024e4:	00a0a623          	sw	a0,12(ra)

800024e8 <inst_539>:
800024e8:	333335b7          	lui	a1,0x33333
800024ec:	33458593          	add	a1,a1,820 # 33333334 <offset+0x3333326c>
800024f0:	652d                	lui	a0,0xb
800024f2:	50350513          	add	a0,a0,1283 # b503 <offset+0xb43b>
800024f6:	952e                	add	a0,a0,a1
800024f8:	00a0a823          	sw	a0,16(ra)

800024fc <inst_540>:
800024fc:	666665b7          	lui	a1,0x66666
80002500:	66758593          	add	a1,a1,1639 # 66666667 <absimm+0x21374138>
80002504:	652d                	lui	a0,0xb
80002506:	50350513          	add	a0,a0,1283 # b503 <offset+0xb43b>
8000250a:	952e                	add	a0,a0,a1
8000250c:	00a0aa23          	sw	a0,20(ra)

80002510 <inst_541>:
80002510:	75d5                	lui	a1,0xffff5
80002512:	afd58593          	add	a1,a1,-1283 # ffff4afd <immx+0x452e702d>
80002516:	652d                	lui	a0,0xb
80002518:	50350513          	add	a0,a0,1283 # b503 <offset+0xb43b>
8000251c:	952e                	add	a0,a0,a1
8000251e:	00a0ac23          	sw	a0,24(ra)

80002522 <inst_542>:
80002522:	65ad                	lui	a1,0xb
80002524:	50558593          	add	a1,a1,1285 # b505 <offset+0xb43d>
80002528:	652d                	lui	a0,0xb
8000252a:	50350513          	add	a0,a0,1283 # b503 <offset+0xb43b>
8000252e:	952e                	add	a0,a0,a1
80002530:	00a0ae23          	sw	a0,28(ra)

80002534 <inst_543>:
80002534:	458d                	li	a1,3
80002536:	55555537          	lui	a0,0x55555
8000253a:	55650513          	add	a0,a0,1366 # 55555556 <absimm+0x10263027>
8000253e:	952e                	add	a0,a0,a1
80002540:	02a0a023          	sw	a0,32(ra)

80002544 <inst_544>:
80002544:	555555b7          	lui	a1,0x55555
80002548:	55558593          	add	a1,a1,1365 # 55555555 <absimm+0x10263026>
8000254c:	55555537          	lui	a0,0x55555
80002550:	55650513          	add	a0,a0,1366 # 55555556 <absimm+0x10263027>
80002554:	952e                	add	a0,a0,a1
80002556:	02a0a223          	sw	a0,36(ra)

8000255a <inst_545>:
8000255a:	aaaab5b7          	lui	a1,0xaaaab
8000255e:	aaa58593          	add	a1,a1,-1366 # aaaaaaaa <_end+0x2aaa506a>
80002562:	55555537          	lui	a0,0x55555
80002566:	55650513          	add	a0,a0,1366 # 55555556 <absimm+0x10263027>
8000256a:	952e                	add	a0,a0,a1
8000256c:	02a0a423          	sw	a0,40(ra)

80002570 <inst_546>:
80002570:	4595                	li	a1,5
80002572:	55555537          	lui	a0,0x55555
80002576:	55650513          	add	a0,a0,1366 # 55555556 <absimm+0x10263027>
8000257a:	952e                	add	a0,a0,a1
8000257c:	02a0a623          	sw	a0,44(ra)

80002580 <inst_547>:
80002580:	333335b7          	lui	a1,0x33333
80002584:	33358593          	add	a1,a1,819 # 33333333 <offset+0x3333326b>
80002588:	55555537          	lui	a0,0x55555
8000258c:	55650513          	add	a0,a0,1366 # 55555556 <absimm+0x10263027>
80002590:	952e                	add	a0,a0,a1
80002592:	02a0a823          	sw	a0,48(ra)

80002596 <inst_548>:
80002596:	666665b7          	lui	a1,0x66666
8000259a:	66658593          	add	a1,a1,1638 # 66666666 <absimm+0x21374137>
8000259e:	55555537          	lui	a0,0x55555
800025a2:	55650513          	add	a0,a0,1366 # 55555556 <absimm+0x10263027>
800025a6:	952e                	add	a0,a0,a1
800025a8:	02a0aa23          	sw	a0,52(ra)

800025ac <inst_549>:
800025ac:	75d5                	lui	a1,0xffff5
800025ae:	afc58593          	add	a1,a1,-1284 # ffff4afc <immx+0x452e702c>
800025b2:	55555537          	lui	a0,0x55555
800025b6:	55650513          	add	a0,a0,1366 # 55555556 <absimm+0x10263027>
800025ba:	952e                	add	a0,a0,a1
800025bc:	02a0ac23          	sw	a0,56(ra)

800025c0 <inst_550>:
800025c0:	65ad                	lui	a1,0xb
800025c2:	50458593          	add	a1,a1,1284 # b504 <offset+0xb43c>
800025c6:	55555537          	lui	a0,0x55555
800025ca:	55650513          	add	a0,a0,1366 # 55555556 <absimm+0x10263027>
800025ce:	952e                	add	a0,a0,a1
800025d0:	02a0ae23          	sw	a0,60(ra)

800025d4 <inst_551>:
800025d4:	4589                	li	a1,2
800025d6:	55555537          	lui	a0,0x55555
800025da:	55650513          	add	a0,a0,1366 # 55555556 <absimm+0x10263027>
800025de:	952e                	add	a0,a0,a1
800025e0:	04a0a023          	sw	a0,64(ra)

800025e4 <inst_552>:
800025e4:	555555b7          	lui	a1,0x55555
800025e8:	55458593          	add	a1,a1,1364 # 55555554 <absimm+0x10263025>
800025ec:	55555537          	lui	a0,0x55555
800025f0:	55650513          	add	a0,a0,1366 # 55555556 <absimm+0x10263027>
800025f4:	952e                	add	a0,a0,a1
800025f6:	04a0a223          	sw	a0,68(ra)

800025fa <inst_553>:
800025fa:	4581                	li	a1,0
800025fc:	55555537          	lui	a0,0x55555
80002600:	55650513          	add	a0,a0,1366 # 55555556 <absimm+0x10263027>
80002604:	952e                	add	a0,a0,a1
80002606:	04a0a423          	sw	a0,72(ra)

8000260a <inst_554>:
8000260a:	4591                	li	a1,4
8000260c:	55555537          	lui	a0,0x55555
80002610:	55650513          	add	a0,a0,1366 # 55555556 <absimm+0x10263027>
80002614:	952e                	add	a0,a0,a1
80002616:	04a0a623          	sw	a0,76(ra)

8000261a <inst_555>:
8000261a:	333335b7          	lui	a1,0x33333
8000261e:	33258593          	add	a1,a1,818 # 33333332 <offset+0x3333326a>
80002622:	55555537          	lui	a0,0x55555
80002626:	55650513          	add	a0,a0,1366 # 55555556 <absimm+0x10263027>
8000262a:	952e                	add	a0,a0,a1
8000262c:	04a0a823          	sw	a0,80(ra)

80002630 <inst_556>:
80002630:	666665b7          	lui	a1,0x66666
80002634:	66558593          	add	a1,a1,1637 # 66666665 <absimm+0x21374136>
80002638:	55555537          	lui	a0,0x55555
8000263c:	55650513          	add	a0,a0,1366 # 55555556 <absimm+0x10263027>
80002640:	952e                	add	a0,a0,a1
80002642:	04a0aa23          	sw	a0,84(ra)

80002646 <inst_557>:
80002646:	65ad                	lui	a1,0xb
80002648:	50358593          	add	a1,a1,1283 # b503 <offset+0xb43b>
8000264c:	55555537          	lui	a0,0x55555
80002650:	55650513          	add	a0,a0,1366 # 55555556 <absimm+0x10263027>
80002654:	952e                	add	a0,a0,a1
80002656:	04a0ac23          	sw	a0,88(ra)

8000265a <inst_558>:
8000265a:	555555b7          	lui	a1,0x55555
8000265e:	55658593          	add	a1,a1,1366 # 55555556 <absimm+0x10263027>
80002662:	55555537          	lui	a0,0x55555
80002666:	55650513          	add	a0,a0,1366 # 55555556 <absimm+0x10263027>
8000266a:	952e                	add	a0,a0,a1
8000266c:	04a0ae23          	sw	a0,92(ra)

80002670 <inst_559>:
80002670:	aaaab5b7          	lui	a1,0xaaaab
80002674:	aab58593          	add	a1,a1,-1365 # aaaaaaab <_end+0x2aaa506b>
80002678:	55555537          	lui	a0,0x55555
8000267c:	55650513          	add	a0,a0,1366 # 55555556 <absimm+0x10263027>
80002680:	952e                	add	a0,a0,a1
80002682:	06a0a023          	sw	a0,96(ra)

80002686 <inst_560>:
80002686:	4599                	li	a1,6
80002688:	55555537          	lui	a0,0x55555
8000268c:	55650513          	add	a0,a0,1366 # 55555556 <absimm+0x10263027>
80002690:	952e                	add	a0,a0,a1
80002692:	06a0a223          	sw	a0,100(ra)

80002696 <inst_561>:
80002696:	333335b7          	lui	a1,0x33333
8000269a:	33458593          	add	a1,a1,820 # 33333334 <offset+0x3333326c>
8000269e:	55555537          	lui	a0,0x55555
800026a2:	55650513          	add	a0,a0,1366 # 55555556 <absimm+0x10263027>
800026a6:	952e                	add	a0,a0,a1
800026a8:	06a0a423          	sw	a0,104(ra)

800026ac <inst_562>:
800026ac:	666665b7          	lui	a1,0x66666
800026b0:	66758593          	add	a1,a1,1639 # 66666667 <absimm+0x21374138>
800026b4:	55555537          	lui	a0,0x55555
800026b8:	55650513          	add	a0,a0,1366 # 55555556 <absimm+0x10263027>
800026bc:	952e                	add	a0,a0,a1
800026be:	06a0a623          	sw	a0,108(ra)

800026c2 <inst_563>:
800026c2:	75d5                	lui	a1,0xffff5
800026c4:	afd58593          	add	a1,a1,-1283 # ffff4afd <immx+0x452e702d>
800026c8:	55555537          	lui	a0,0x55555
800026cc:	55650513          	add	a0,a0,1366 # 55555556 <absimm+0x10263027>
800026d0:	952e                	add	a0,a0,a1
800026d2:	06a0a823          	sw	a0,112(ra)

800026d6 <inst_564>:
800026d6:	65ad                	lui	a1,0xb
800026d8:	50558593          	add	a1,a1,1285 # b505 <offset+0xb43d>
800026dc:	55555537          	lui	a0,0x55555
800026e0:	55650513          	add	a0,a0,1366 # 55555556 <absimm+0x10263027>
800026e4:	952e                	add	a0,a0,a1
800026e6:	06a0aa23          	sw	a0,116(ra)

800026ea <inst_565>:
800026ea:	458d                	li	a1,3
800026ec:	aaaab537          	lui	a0,0xaaaab
800026f0:	aab50513          	add	a0,a0,-1365 # aaaaaaab <_end+0x2aaa506b>
800026f4:	952e                	add	a0,a0,a1
800026f6:	06a0ac23          	sw	a0,120(ra)

800026fa <inst_566>:
800026fa:	555555b7          	lui	a1,0x55555
800026fe:	55558593          	add	a1,a1,1365 # 55555555 <absimm+0x10263026>
80002702:	aaaab537          	lui	a0,0xaaaab
80002706:	aab50513          	add	a0,a0,-1365 # aaaaaaab <_end+0x2aaa506b>
8000270a:	952e                	add	a0,a0,a1
8000270c:	06a0ae23          	sw	a0,124(ra)

80002710 <inst_567>:
80002710:	aaaab5b7          	lui	a1,0xaaaab
80002714:	aaa58593          	add	a1,a1,-1366 # aaaaaaaa <_end+0x2aaa506a>
80002718:	aaaab537          	lui	a0,0xaaaab
8000271c:	aab50513          	add	a0,a0,-1365 # aaaaaaab <_end+0x2aaa506b>
80002720:	952e                	add	a0,a0,a1
80002722:	08a0a023          	sw	a0,128(ra)

80002726 <inst_568>:
80002726:	4595                	li	a1,5
80002728:	aaaab537          	lui	a0,0xaaaab
8000272c:	aab50513          	add	a0,a0,-1365 # aaaaaaab <_end+0x2aaa506b>
80002730:	952e                	add	a0,a0,a1
80002732:	08a0a223          	sw	a0,132(ra)

80002736 <inst_569>:
80002736:	333335b7          	lui	a1,0x33333
8000273a:	33358593          	add	a1,a1,819 # 33333333 <offset+0x3333326b>
8000273e:	aaaab537          	lui	a0,0xaaaab
80002742:	aab50513          	add	a0,a0,-1365 # aaaaaaab <_end+0x2aaa506b>
80002746:	952e                	add	a0,a0,a1
80002748:	08a0a423          	sw	a0,136(ra)

8000274c <inst_570>:
8000274c:	666665b7          	lui	a1,0x66666
80002750:	66658593          	add	a1,a1,1638 # 66666666 <absimm+0x21374137>
80002754:	aaaab537          	lui	a0,0xaaaab
80002758:	aab50513          	add	a0,a0,-1365 # aaaaaaab <_end+0x2aaa506b>
8000275c:	952e                	add	a0,a0,a1
8000275e:	08a0a623          	sw	a0,140(ra)

80002762 <inst_571>:
80002762:	75d5                	lui	a1,0xffff5
80002764:	afc58593          	add	a1,a1,-1284 # ffff4afc <immx+0x452e702c>
80002768:	aaaab537          	lui	a0,0xaaaab
8000276c:	aab50513          	add	a0,a0,-1365 # aaaaaaab <_end+0x2aaa506b>
80002770:	952e                	add	a0,a0,a1
80002772:	08a0a823          	sw	a0,144(ra)

80002776 <inst_572>:
80002776:	65ad                	lui	a1,0xb
80002778:	50458593          	add	a1,a1,1284 # b504 <offset+0xb43c>
8000277c:	aaaab537          	lui	a0,0xaaaab
80002780:	aab50513          	add	a0,a0,-1365 # aaaaaaab <_end+0x2aaa506b>
80002784:	952e                	add	a0,a0,a1
80002786:	08a0aa23          	sw	a0,148(ra)

8000278a <inst_573>:
8000278a:	4589                	li	a1,2
8000278c:	aaaab537          	lui	a0,0xaaaab
80002790:	aab50513          	add	a0,a0,-1365 # aaaaaaab <_end+0x2aaa506b>
80002794:	952e                	add	a0,a0,a1
80002796:	08a0ac23          	sw	a0,152(ra)

8000279a <inst_574>:
8000279a:	555555b7          	lui	a1,0x55555
8000279e:	55458593          	add	a1,a1,1364 # 55555554 <absimm+0x10263025>
800027a2:	aaaab537          	lui	a0,0xaaaab
800027a6:	aab50513          	add	a0,a0,-1365 # aaaaaaab <_end+0x2aaa506b>
800027aa:	952e                	add	a0,a0,a1
800027ac:	08a0ae23          	sw	a0,156(ra)

800027b0 <inst_575>:
800027b0:	4581                	li	a1,0
800027b2:	aaaab537          	lui	a0,0xaaaab
800027b6:	aab50513          	add	a0,a0,-1365 # aaaaaaab <_end+0x2aaa506b>
800027ba:	952e                	add	a0,a0,a1
800027bc:	0aa0a023          	sw	a0,160(ra)

800027c0 <inst_576>:
800027c0:	4591                	li	a1,4
800027c2:	aaaab537          	lui	a0,0xaaaab
800027c6:	aab50513          	add	a0,a0,-1365 # aaaaaaab <_end+0x2aaa506b>
800027ca:	952e                	add	a0,a0,a1
800027cc:	0aa0a223          	sw	a0,164(ra)

800027d0 <inst_577>:
800027d0:	333335b7          	lui	a1,0x33333
800027d4:	33258593          	add	a1,a1,818 # 33333332 <offset+0x3333326a>
800027d8:	aaaab537          	lui	a0,0xaaaab
800027dc:	aab50513          	add	a0,a0,-1365 # aaaaaaab <_end+0x2aaa506b>
800027e0:	952e                	add	a0,a0,a1
800027e2:	0aa0a423          	sw	a0,168(ra)

800027e6 <inst_578>:
800027e6:	666665b7          	lui	a1,0x66666
800027ea:	66558593          	add	a1,a1,1637 # 66666665 <absimm+0x21374136>
800027ee:	aaaab537          	lui	a0,0xaaaab
800027f2:	aab50513          	add	a0,a0,-1365 # aaaaaaab <_end+0x2aaa506b>
800027f6:	952e                	add	a0,a0,a1
800027f8:	0aa0a623          	sw	a0,172(ra)

800027fc <inst_579>:
800027fc:	65ad                	lui	a1,0xb
800027fe:	50358593          	add	a1,a1,1283 # b503 <offset+0xb43b>
80002802:	aaaab537          	lui	a0,0xaaaab
80002806:	aab50513          	add	a0,a0,-1365 # aaaaaaab <_end+0x2aaa506b>
8000280a:	952e                	add	a0,a0,a1
8000280c:	0aa0a823          	sw	a0,176(ra)

80002810 <inst_580>:
80002810:	555555b7          	lui	a1,0x55555
80002814:	55658593          	add	a1,a1,1366 # 55555556 <absimm+0x10263027>
80002818:	aaaab537          	lui	a0,0xaaaab
8000281c:	aab50513          	add	a0,a0,-1365 # aaaaaaab <_end+0x2aaa506b>
80002820:	952e                	add	a0,a0,a1
80002822:	0aa0aa23          	sw	a0,180(ra)

80002826 <inst_581>:
80002826:	aaaab5b7          	lui	a1,0xaaaab
8000282a:	aab58593          	add	a1,a1,-1365 # aaaaaaab <_end+0x2aaa506b>
8000282e:	aaaab537          	lui	a0,0xaaaab
80002832:	aab50513          	add	a0,a0,-1365 # aaaaaaab <_end+0x2aaa506b>
80002836:	952e                	add	a0,a0,a1
80002838:	0aa0ac23          	sw	a0,184(ra)

8000283c <inst_582>:
8000283c:	4599                	li	a1,6
8000283e:	aaaab537          	lui	a0,0xaaaab
80002842:	aab50513          	add	a0,a0,-1365 # aaaaaaab <_end+0x2aaa506b>
80002846:	952e                	add	a0,a0,a1
80002848:	0aa0ae23          	sw	a0,188(ra)

8000284c <inst_583>:
8000284c:	333335b7          	lui	a1,0x33333
80002850:	33458593          	add	a1,a1,820 # 33333334 <offset+0x3333326c>
80002854:	aaaab537          	lui	a0,0xaaaab
80002858:	aab50513          	add	a0,a0,-1365 # aaaaaaab <_end+0x2aaa506b>
8000285c:	952e                	add	a0,a0,a1
8000285e:	0ca0a023          	sw	a0,192(ra)

80002862 <inst_584>:
80002862:	666665b7          	lui	a1,0x66666
80002866:	66758593          	add	a1,a1,1639 # 66666667 <absimm+0x21374138>
8000286a:	aaaab537          	lui	a0,0xaaaab
8000286e:	aab50513          	add	a0,a0,-1365 # aaaaaaab <_end+0x2aaa506b>
80002872:	952e                	add	a0,a0,a1
80002874:	0ca0a223          	sw	a0,196(ra)

80002878 <cleanup_epilogs>:
80002878:	0200006f          	j	80002898 <exit_cleanup>

8000287c <abort_tests>:
8000287c:	17812e83          	lw	t4,376(sp)
80002880:	18012303          	lw	t1,384(sp)
80002884:	01d30333          	add	t1,t1,t4
80002888:	bad0e337          	lui	t1,0xbad0e
8000288c:	ad030313          	add	t1,t1,-1328 # bad0dad0 <immx>
80002890:	fe6eae23          	sw	t1,-4(t4)
80002894:	0040006f          	j	80002898 <exit_cleanup>

80002898 <exit_cleanup>:
80002898:	4085                	li	ra,1

8000289a <write_tohost>:
8000289a:	00000f17          	auipc	t5,0x0
8000289e:	761f2323          	sw	ra,1894(t5) # 80003000 <tohost>
800028a2:	bfe5                	j	8000289a <write_tohost>
	...

Disassembly of section .tohost:

80003000 <tohost>:
	...

80003100 <fromhost>:
	...

Disassembly of section .data:

80004000 <rvtest_data_begin>:
80004000:	cafe                	sw	t6,84(sp)
80004002:	babe                	.2byte	0xbabe
80004004:	cafe                	sw	t6,84(sp)
80004006:	babe                	.2byte	0xbabe
80004008:	cafe                	sw	t6,84(sp)
8000400a:	babe                	.2byte	0xbabe
8000400c:	cafe                	sw	t6,84(sp)
8000400e:	babe                	.2byte	0xbabe

80004010 <mtrap_sigptr>:
80004010:	deadbeef          	jal	t4,7ffdf5fa <absimm+0x3aced0cb>
80004014:	deadbeef          	jal	t4,7ffdf5fe <absimm+0x3aced0cf>
	...

80005000 <begin_regstate>:
80005000:	0080                	add	s0,sp,64
	...

80005100 <end_regstate>:
80005100:	0004                	.2byte	0x4
	...

80005110 <begin_signature>:
80005110:	a309                	j	80005612 <signature_x1_0+0x4a2>
80005112:	6f5c                	.2byte	0x6f5c

80005114 <signature_x8_0>:
80005114:	deadbeef          	jal	t4,7ffe06fe <absimm+0x3acee1cf>
80005118:	deadbeef          	jal	t4,7ffe0702 <absimm+0x3acee1d3>
8000511c:	deadbeef          	jal	t4,7ffe0706 <absimm+0x3acee1d7>
80005120:	deadbeef          	jal	t4,7ffe070a <absimm+0x3acee1db>
80005124:	deadbeef          	jal	t4,7ffe070e <absimm+0x3acee1df>
80005128:	deadbeef          	jal	t4,7ffe0712 <absimm+0x3acee1e3>
8000512c:	deadbeef          	jal	t4,7ffe0716 <absimm+0x3acee1e7>
80005130:	deadbeef          	jal	t4,7ffe071a <absimm+0x3acee1eb>
80005134:	deadbeef          	jal	t4,7ffe071e <absimm+0x3acee1ef>
80005138:	deadbeef          	jal	t4,7ffe0722 <absimm+0x3acee1f3>
8000513c:	deadbeef          	jal	t4,7ffe0726 <absimm+0x3acee1f7>
80005140:	deadbeef          	jal	t4,7ffe072a <absimm+0x3acee1fb>
80005144:	deadbeef          	jal	t4,7ffe072e <absimm+0x3acee1ff>
80005148:	deadbeef          	jal	t4,7ffe0732 <absimm+0x3acee203>
8000514c:	deadbeef          	jal	t4,7ffe0736 <absimm+0x3acee207>
80005150:	deadbeef          	jal	t4,7ffe073a <absimm+0x3acee20b>
80005154:	deadbeef          	jal	t4,7ffe073e <absimm+0x3acee20f>
80005158:	deadbeef          	jal	t4,7ffe0742 <absimm+0x3acee213>
8000515c:	deadbeef          	jal	t4,7ffe0746 <absimm+0x3acee217>
80005160:	deadbeef          	jal	t4,7ffe074a <absimm+0x3acee21b>
80005164:	deadbeef          	jal	t4,7ffe074e <absimm+0x3acee21f>
80005168:	deadbeef          	jal	t4,7ffe0752 <absimm+0x3acee223>
8000516c:	deadbeef          	jal	t4,7ffe0756 <absimm+0x3acee227>

80005170 <signature_x1_0>:
80005170:	deadbeef          	jal	t4,7ffe075a <absimm+0x3acee22b>
80005174:	deadbeef          	jal	t4,7ffe075e <absimm+0x3acee22f>
80005178:	deadbeef          	jal	t4,7ffe0762 <absimm+0x3acee233>
8000517c:	deadbeef          	jal	t4,7ffe0766 <absimm+0x3acee237>
80005180:	deadbeef          	jal	t4,7ffe076a <absimm+0x3acee23b>
80005184:	deadbeef          	jal	t4,7ffe076e <absimm+0x3acee23f>
80005188:	deadbeef          	jal	t4,7ffe0772 <absimm+0x3acee243>
8000518c:	deadbeef          	jal	t4,7ffe0776 <absimm+0x3acee247>
80005190:	deadbeef          	jal	t4,7ffe077a <absimm+0x3acee24b>
80005194:	deadbeef          	jal	t4,7ffe077e <absimm+0x3acee24f>
80005198:	deadbeef          	jal	t4,7ffe0782 <absimm+0x3acee253>
8000519c:	deadbeef          	jal	t4,7ffe0786 <absimm+0x3acee257>
800051a0:	deadbeef          	jal	t4,7ffe078a <absimm+0x3acee25b>
800051a4:	deadbeef          	jal	t4,7ffe078e <absimm+0x3acee25f>
800051a8:	deadbeef          	jal	t4,7ffe0792 <absimm+0x3acee263>
800051ac:	deadbeef          	jal	t4,7ffe0796 <absimm+0x3acee267>
800051b0:	deadbeef          	jal	t4,7ffe079a <absimm+0x3acee26b>
800051b4:	deadbeef          	jal	t4,7ffe079e <absimm+0x3acee26f>
800051b8:	deadbeef          	jal	t4,7ffe07a2 <absimm+0x3acee273>
800051bc:	deadbeef          	jal	t4,7ffe07a6 <absimm+0x3acee277>
800051c0:	deadbeef          	jal	t4,7ffe07aa <absimm+0x3acee27b>
800051c4:	deadbeef          	jal	t4,7ffe07ae <absimm+0x3acee27f>
800051c8:	deadbeef          	jal	t4,7ffe07b2 <absimm+0x3acee283>
800051cc:	deadbeef          	jal	t4,7ffe07b6 <absimm+0x3acee287>
800051d0:	deadbeef          	jal	t4,7ffe07ba <absimm+0x3acee28b>
800051d4:	deadbeef          	jal	t4,7ffe07be <absimm+0x3acee28f>
800051d8:	deadbeef          	jal	t4,7ffe07c2 <absimm+0x3acee293>
800051dc:	deadbeef          	jal	t4,7ffe07c6 <absimm+0x3acee297>
800051e0:	deadbeef          	jal	t4,7ffe07ca <absimm+0x3acee29b>
800051e4:	deadbeef          	jal	t4,7ffe07ce <absimm+0x3acee29f>
800051e8:	deadbeef          	jal	t4,7ffe07d2 <absimm+0x3acee2a3>
800051ec:	deadbeef          	jal	t4,7ffe07d6 <absimm+0x3acee2a7>
800051f0:	deadbeef          	jal	t4,7ffe07da <absimm+0x3acee2ab>
800051f4:	deadbeef          	jal	t4,7ffe07de <absimm+0x3acee2af>
800051f8:	deadbeef          	jal	t4,7ffe07e2 <absimm+0x3acee2b3>
800051fc:	deadbeef          	jal	t4,7ffe07e6 <absimm+0x3acee2b7>
80005200:	deadbeef          	jal	t4,7ffe07ea <absimm+0x3acee2bb>
80005204:	deadbeef          	jal	t4,7ffe07ee <absimm+0x3acee2bf>
80005208:	deadbeef          	jal	t4,7ffe07f2 <absimm+0x3acee2c3>
8000520c:	deadbeef          	jal	t4,7ffe07f6 <absimm+0x3acee2c7>
80005210:	deadbeef          	jal	t4,7ffe07fa <absimm+0x3acee2cb>
80005214:	deadbeef          	jal	t4,7ffe07fe <absimm+0x3acee2cf>
80005218:	deadbeef          	jal	t4,7ffe0802 <absimm+0x3acee2d3>
8000521c:	deadbeef          	jal	t4,7ffe0806 <absimm+0x3acee2d7>
80005220:	deadbeef          	jal	t4,7ffe080a <absimm+0x3acee2db>
80005224:	deadbeef          	jal	t4,7ffe080e <absimm+0x3acee2df>
80005228:	deadbeef          	jal	t4,7ffe0812 <absimm+0x3acee2e3>
8000522c:	deadbeef          	jal	t4,7ffe0816 <absimm+0x3acee2e7>
80005230:	deadbeef          	jal	t4,7ffe081a <absimm+0x3acee2eb>
80005234:	deadbeef          	jal	t4,7ffe081e <absimm+0x3acee2ef>
80005238:	deadbeef          	jal	t4,7ffe0822 <absimm+0x3acee2f3>
8000523c:	deadbeef          	jal	t4,7ffe0826 <absimm+0x3acee2f7>
80005240:	deadbeef          	jal	t4,7ffe082a <absimm+0x3acee2fb>
80005244:	deadbeef          	jal	t4,7ffe082e <absimm+0x3acee2ff>
80005248:	deadbeef          	jal	t4,7ffe0832 <absimm+0x3acee303>
8000524c:	deadbeef          	jal	t4,7ffe0836 <absimm+0x3acee307>
80005250:	deadbeef          	jal	t4,7ffe083a <absimm+0x3acee30b>
80005254:	deadbeef          	jal	t4,7ffe083e <absimm+0x3acee30f>
80005258:	deadbeef          	jal	t4,7ffe0842 <absimm+0x3acee313>
8000525c:	deadbeef          	jal	t4,7ffe0846 <absimm+0x3acee317>
80005260:	deadbeef          	jal	t4,7ffe084a <absimm+0x3acee31b>
80005264:	deadbeef          	jal	t4,7ffe084e <absimm+0x3acee31f>
80005268:	deadbeef          	jal	t4,7ffe0852 <absimm+0x3acee323>
8000526c:	deadbeef          	jal	t4,7ffe0856 <absimm+0x3acee327>
80005270:	deadbeef          	jal	t4,7ffe085a <absimm+0x3acee32b>
80005274:	deadbeef          	jal	t4,7ffe085e <absimm+0x3acee32f>
80005278:	deadbeef          	jal	t4,7ffe0862 <absimm+0x3acee333>
8000527c:	deadbeef          	jal	t4,7ffe0866 <absimm+0x3acee337>
80005280:	deadbeef          	jal	t4,7ffe086a <absimm+0x3acee33b>
80005284:	deadbeef          	jal	t4,7ffe086e <absimm+0x3acee33f>
80005288:	deadbeef          	jal	t4,7ffe0872 <absimm+0x3acee343>
8000528c:	deadbeef          	jal	t4,7ffe0876 <absimm+0x3acee347>
80005290:	deadbeef          	jal	t4,7ffe087a <absimm+0x3acee34b>
80005294:	deadbeef          	jal	t4,7ffe087e <absimm+0x3acee34f>
80005298:	deadbeef          	jal	t4,7ffe0882 <absimm+0x3acee353>
8000529c:	deadbeef          	jal	t4,7ffe0886 <absimm+0x3acee357>
800052a0:	deadbeef          	jal	t4,7ffe088a <absimm+0x3acee35b>
800052a4:	deadbeef          	jal	t4,7ffe088e <absimm+0x3acee35f>
800052a8:	deadbeef          	jal	t4,7ffe0892 <absimm+0x3acee363>
800052ac:	deadbeef          	jal	t4,7ffe0896 <absimm+0x3acee367>
800052b0:	deadbeef          	jal	t4,7ffe089a <absimm+0x3acee36b>
800052b4:	deadbeef          	jal	t4,7ffe089e <absimm+0x3acee36f>
800052b8:	deadbeef          	jal	t4,7ffe08a2 <absimm+0x3acee373>
800052bc:	deadbeef          	jal	t4,7ffe08a6 <absimm+0x3acee377>
800052c0:	deadbeef          	jal	t4,7ffe08aa <absimm+0x3acee37b>
800052c4:	deadbeef          	jal	t4,7ffe08ae <absimm+0x3acee37f>
800052c8:	deadbeef          	jal	t4,7ffe08b2 <absimm+0x3acee383>
800052cc:	deadbeef          	jal	t4,7ffe08b6 <absimm+0x3acee387>
800052d0:	deadbeef          	jal	t4,7ffe08ba <absimm+0x3acee38b>
800052d4:	deadbeef          	jal	t4,7ffe08be <absimm+0x3acee38f>
800052d8:	deadbeef          	jal	t4,7ffe08c2 <absimm+0x3acee393>
800052dc:	deadbeef          	jal	t4,7ffe08c6 <absimm+0x3acee397>
800052e0:	deadbeef          	jal	t4,7ffe08ca <absimm+0x3acee39b>
800052e4:	deadbeef          	jal	t4,7ffe08ce <absimm+0x3acee39f>
800052e8:	deadbeef          	jal	t4,7ffe08d2 <absimm+0x3acee3a3>
800052ec:	deadbeef          	jal	t4,7ffe08d6 <absimm+0x3acee3a7>
800052f0:	deadbeef          	jal	t4,7ffe08da <absimm+0x3acee3ab>
800052f4:	deadbeef          	jal	t4,7ffe08de <absimm+0x3acee3af>
800052f8:	deadbeef          	jal	t4,7ffe08e2 <absimm+0x3acee3b3>
800052fc:	deadbeef          	jal	t4,7ffe08e6 <absimm+0x3acee3b7>
80005300:	deadbeef          	jal	t4,7ffe08ea <absimm+0x3acee3bb>
80005304:	deadbeef          	jal	t4,7ffe08ee <absimm+0x3acee3bf>
80005308:	deadbeef          	jal	t4,7ffe08f2 <absimm+0x3acee3c3>
8000530c:	deadbeef          	jal	t4,7ffe08f6 <absimm+0x3acee3c7>
80005310:	deadbeef          	jal	t4,7ffe08fa <absimm+0x3acee3cb>
80005314:	deadbeef          	jal	t4,7ffe08fe <absimm+0x3acee3cf>
80005318:	deadbeef          	jal	t4,7ffe0902 <absimm+0x3acee3d3>
8000531c:	deadbeef          	jal	t4,7ffe0906 <absimm+0x3acee3d7>
80005320:	deadbeef          	jal	t4,7ffe090a <absimm+0x3acee3db>
80005324:	deadbeef          	jal	t4,7ffe090e <absimm+0x3acee3df>
80005328:	deadbeef          	jal	t4,7ffe0912 <absimm+0x3acee3e3>
8000532c:	deadbeef          	jal	t4,7ffe0916 <absimm+0x3acee3e7>
80005330:	deadbeef          	jal	t4,7ffe091a <absimm+0x3acee3eb>
80005334:	deadbeef          	jal	t4,7ffe091e <absimm+0x3acee3ef>
80005338:	deadbeef          	jal	t4,7ffe0922 <absimm+0x3acee3f3>
8000533c:	deadbeef          	jal	t4,7ffe0926 <absimm+0x3acee3f7>
80005340:	deadbeef          	jal	t4,7ffe092a <absimm+0x3acee3fb>
80005344:	deadbeef          	jal	t4,7ffe092e <absimm+0x3acee3ff>
80005348:	deadbeef          	jal	t4,7ffe0932 <absimm+0x3acee403>
8000534c:	deadbeef          	jal	t4,7ffe0936 <absimm+0x3acee407>
80005350:	deadbeef          	jal	t4,7ffe093a <absimm+0x3acee40b>
80005354:	deadbeef          	jal	t4,7ffe093e <absimm+0x3acee40f>
80005358:	deadbeef          	jal	t4,7ffe0942 <absimm+0x3acee413>
8000535c:	deadbeef          	jal	t4,7ffe0946 <absimm+0x3acee417>
80005360:	deadbeef          	jal	t4,7ffe094a <absimm+0x3acee41b>
80005364:	deadbeef          	jal	t4,7ffe094e <absimm+0x3acee41f>
80005368:	deadbeef          	jal	t4,7ffe0952 <absimm+0x3acee423>
8000536c:	deadbeef          	jal	t4,7ffe0956 <absimm+0x3acee427>
80005370:	deadbeef          	jal	t4,7ffe095a <absimm+0x3acee42b>
80005374:	deadbeef          	jal	t4,7ffe095e <absimm+0x3acee42f>
80005378:	deadbeef          	jal	t4,7ffe0962 <absimm+0x3acee433>
8000537c:	deadbeef          	jal	t4,7ffe0966 <absimm+0x3acee437>
80005380:	deadbeef          	jal	t4,7ffe096a <absimm+0x3acee43b>
80005384:	deadbeef          	jal	t4,7ffe096e <absimm+0x3acee43f>
80005388:	deadbeef          	jal	t4,7ffe0972 <absimm+0x3acee443>
8000538c:	deadbeef          	jal	t4,7ffe0976 <absimm+0x3acee447>
80005390:	deadbeef          	jal	t4,7ffe097a <absimm+0x3acee44b>
80005394:	deadbeef          	jal	t4,7ffe097e <absimm+0x3acee44f>
80005398:	deadbeef          	jal	t4,7ffe0982 <absimm+0x3acee453>
8000539c:	deadbeef          	jal	t4,7ffe0986 <absimm+0x3acee457>
800053a0:	deadbeef          	jal	t4,7ffe098a <absimm+0x3acee45b>
800053a4:	deadbeef          	jal	t4,7ffe098e <absimm+0x3acee45f>
800053a8:	deadbeef          	jal	t4,7ffe0992 <absimm+0x3acee463>
800053ac:	deadbeef          	jal	t4,7ffe0996 <absimm+0x3acee467>
800053b0:	deadbeef          	jal	t4,7ffe099a <absimm+0x3acee46b>
800053b4:	deadbeef          	jal	t4,7ffe099e <absimm+0x3acee46f>
800053b8:	deadbeef          	jal	t4,7ffe09a2 <absimm+0x3acee473>
800053bc:	deadbeef          	jal	t4,7ffe09a6 <absimm+0x3acee477>
800053c0:	deadbeef          	jal	t4,7ffe09aa <absimm+0x3acee47b>
800053c4:	deadbeef          	jal	t4,7ffe09ae <absimm+0x3acee47f>
800053c8:	deadbeef          	jal	t4,7ffe09b2 <absimm+0x3acee483>
800053cc:	deadbeef          	jal	t4,7ffe09b6 <absimm+0x3acee487>
800053d0:	deadbeef          	jal	t4,7ffe09ba <absimm+0x3acee48b>
800053d4:	deadbeef          	jal	t4,7ffe09be <absimm+0x3acee48f>
800053d8:	deadbeef          	jal	t4,7ffe09c2 <absimm+0x3acee493>
800053dc:	deadbeef          	jal	t4,7ffe09c6 <absimm+0x3acee497>
800053e0:	deadbeef          	jal	t4,7ffe09ca <absimm+0x3acee49b>
800053e4:	deadbeef          	jal	t4,7ffe09ce <absimm+0x3acee49f>
800053e8:	deadbeef          	jal	t4,7ffe09d2 <absimm+0x3acee4a3>
800053ec:	deadbeef          	jal	t4,7ffe09d6 <absimm+0x3acee4a7>
800053f0:	deadbeef          	jal	t4,7ffe09da <absimm+0x3acee4ab>
800053f4:	deadbeef          	jal	t4,7ffe09de <absimm+0x3acee4af>
800053f8:	deadbeef          	jal	t4,7ffe09e2 <absimm+0x3acee4b3>
800053fc:	deadbeef          	jal	t4,7ffe09e6 <absimm+0x3acee4b7>
80005400:	deadbeef          	jal	t4,7ffe09ea <absimm+0x3acee4bb>
80005404:	deadbeef          	jal	t4,7ffe09ee <absimm+0x3acee4bf>
80005408:	deadbeef          	jal	t4,7ffe09f2 <absimm+0x3acee4c3>
8000540c:	deadbeef          	jal	t4,7ffe09f6 <absimm+0x3acee4c7>
80005410:	deadbeef          	jal	t4,7ffe09fa <absimm+0x3acee4cb>
80005414:	deadbeef          	jal	t4,7ffe09fe <absimm+0x3acee4cf>
80005418:	deadbeef          	jal	t4,7ffe0a02 <absimm+0x3acee4d3>
8000541c:	deadbeef          	jal	t4,7ffe0a06 <absimm+0x3acee4d7>
80005420:	deadbeef          	jal	t4,7ffe0a0a <absimm+0x3acee4db>
80005424:	deadbeef          	jal	t4,7ffe0a0e <absimm+0x3acee4df>
80005428:	deadbeef          	jal	t4,7ffe0a12 <absimm+0x3acee4e3>
8000542c:	deadbeef          	jal	t4,7ffe0a16 <absimm+0x3acee4e7>
80005430:	deadbeef          	jal	t4,7ffe0a1a <absimm+0x3acee4eb>
80005434:	deadbeef          	jal	t4,7ffe0a1e <absimm+0x3acee4ef>
80005438:	deadbeef          	jal	t4,7ffe0a22 <absimm+0x3acee4f3>
8000543c:	deadbeef          	jal	t4,7ffe0a26 <absimm+0x3acee4f7>
80005440:	deadbeef          	jal	t4,7ffe0a2a <absimm+0x3acee4fb>
80005444:	deadbeef          	jal	t4,7ffe0a2e <absimm+0x3acee4ff>
80005448:	deadbeef          	jal	t4,7ffe0a32 <absimm+0x3acee503>
8000544c:	deadbeef          	jal	t4,7ffe0a36 <absimm+0x3acee507>
80005450:	deadbeef          	jal	t4,7ffe0a3a <absimm+0x3acee50b>
80005454:	deadbeef          	jal	t4,7ffe0a3e <absimm+0x3acee50f>
80005458:	deadbeef          	jal	t4,7ffe0a42 <absimm+0x3acee513>
8000545c:	deadbeef          	jal	t4,7ffe0a46 <absimm+0x3acee517>
80005460:	deadbeef          	jal	t4,7ffe0a4a <absimm+0x3acee51b>
80005464:	deadbeef          	jal	t4,7ffe0a4e <absimm+0x3acee51f>
80005468:	deadbeef          	jal	t4,7ffe0a52 <absimm+0x3acee523>
8000546c:	deadbeef          	jal	t4,7ffe0a56 <absimm+0x3acee527>
80005470:	deadbeef          	jal	t4,7ffe0a5a <absimm+0x3acee52b>
80005474:	deadbeef          	jal	t4,7ffe0a5e <absimm+0x3acee52f>
80005478:	deadbeef          	jal	t4,7ffe0a62 <absimm+0x3acee533>
8000547c:	deadbeef          	jal	t4,7ffe0a66 <absimm+0x3acee537>
80005480:	deadbeef          	jal	t4,7ffe0a6a <absimm+0x3acee53b>
80005484:	deadbeef          	jal	t4,7ffe0a6e <absimm+0x3acee53f>
80005488:	deadbeef          	jal	t4,7ffe0a72 <absimm+0x3acee543>
8000548c:	deadbeef          	jal	t4,7ffe0a76 <absimm+0x3acee547>
80005490:	deadbeef          	jal	t4,7ffe0a7a <absimm+0x3acee54b>
80005494:	deadbeef          	jal	t4,7ffe0a7e <absimm+0x3acee54f>
80005498:	deadbeef          	jal	t4,7ffe0a82 <absimm+0x3acee553>
8000549c:	deadbeef          	jal	t4,7ffe0a86 <absimm+0x3acee557>
800054a0:	deadbeef          	jal	t4,7ffe0a8a <absimm+0x3acee55b>
800054a4:	deadbeef          	jal	t4,7ffe0a8e <absimm+0x3acee55f>
800054a8:	deadbeef          	jal	t4,7ffe0a92 <absimm+0x3acee563>
800054ac:	deadbeef          	jal	t4,7ffe0a96 <absimm+0x3acee567>
800054b0:	deadbeef          	jal	t4,7ffe0a9a <absimm+0x3acee56b>
800054b4:	deadbeef          	jal	t4,7ffe0a9e <absimm+0x3acee56f>
800054b8:	deadbeef          	jal	t4,7ffe0aa2 <absimm+0x3acee573>
800054bc:	deadbeef          	jal	t4,7ffe0aa6 <absimm+0x3acee577>
800054c0:	deadbeef          	jal	t4,7ffe0aaa <absimm+0x3acee57b>
800054c4:	deadbeef          	jal	t4,7ffe0aae <absimm+0x3acee57f>
800054c8:	deadbeef          	jal	t4,7ffe0ab2 <absimm+0x3acee583>
800054cc:	deadbeef          	jal	t4,7ffe0ab6 <absimm+0x3acee587>
800054d0:	deadbeef          	jal	t4,7ffe0aba <absimm+0x3acee58b>
800054d4:	deadbeef          	jal	t4,7ffe0abe <absimm+0x3acee58f>
800054d8:	deadbeef          	jal	t4,7ffe0ac2 <absimm+0x3acee593>
800054dc:	deadbeef          	jal	t4,7ffe0ac6 <absimm+0x3acee597>
800054e0:	deadbeef          	jal	t4,7ffe0aca <absimm+0x3acee59b>
800054e4:	deadbeef          	jal	t4,7ffe0ace <absimm+0x3acee59f>
800054e8:	deadbeef          	jal	t4,7ffe0ad2 <absimm+0x3acee5a3>
800054ec:	deadbeef          	jal	t4,7ffe0ad6 <absimm+0x3acee5a7>
800054f0:	deadbeef          	jal	t4,7ffe0ada <absimm+0x3acee5ab>
800054f4:	deadbeef          	jal	t4,7ffe0ade <absimm+0x3acee5af>
800054f8:	deadbeef          	jal	t4,7ffe0ae2 <absimm+0x3acee5b3>
800054fc:	deadbeef          	jal	t4,7ffe0ae6 <absimm+0x3acee5b7>
80005500:	deadbeef          	jal	t4,7ffe0aea <absimm+0x3acee5bb>
80005504:	deadbeef          	jal	t4,7ffe0aee <absimm+0x3acee5bf>
80005508:	deadbeef          	jal	t4,7ffe0af2 <absimm+0x3acee5c3>
8000550c:	deadbeef          	jal	t4,7ffe0af6 <absimm+0x3acee5c7>
80005510:	deadbeef          	jal	t4,7ffe0afa <absimm+0x3acee5cb>
80005514:	deadbeef          	jal	t4,7ffe0afe <absimm+0x3acee5cf>
80005518:	deadbeef          	jal	t4,7ffe0b02 <absimm+0x3acee5d3>
8000551c:	deadbeef          	jal	t4,7ffe0b06 <absimm+0x3acee5d7>
80005520:	deadbeef          	jal	t4,7ffe0b0a <absimm+0x3acee5db>
80005524:	deadbeef          	jal	t4,7ffe0b0e <absimm+0x3acee5df>
80005528:	deadbeef          	jal	t4,7ffe0b12 <absimm+0x3acee5e3>
8000552c:	deadbeef          	jal	t4,7ffe0b16 <absimm+0x3acee5e7>
80005530:	deadbeef          	jal	t4,7ffe0b1a <absimm+0x3acee5eb>
80005534:	deadbeef          	jal	t4,7ffe0b1e <absimm+0x3acee5ef>
80005538:	deadbeef          	jal	t4,7ffe0b22 <absimm+0x3acee5f3>
8000553c:	deadbeef          	jal	t4,7ffe0b26 <absimm+0x3acee5f7>
80005540:	deadbeef          	jal	t4,7ffe0b2a <absimm+0x3acee5fb>
80005544:	deadbeef          	jal	t4,7ffe0b2e <absimm+0x3acee5ff>
80005548:	deadbeef          	jal	t4,7ffe0b32 <absimm+0x3acee603>
8000554c:	deadbeef          	jal	t4,7ffe0b36 <absimm+0x3acee607>
80005550:	deadbeef          	jal	t4,7ffe0b3a <absimm+0x3acee60b>
80005554:	deadbeef          	jal	t4,7ffe0b3e <absimm+0x3acee60f>
80005558:	deadbeef          	jal	t4,7ffe0b42 <absimm+0x3acee613>
8000555c:	deadbeef          	jal	t4,7ffe0b46 <absimm+0x3acee617>
80005560:	deadbeef          	jal	t4,7ffe0b4a <absimm+0x3acee61b>
80005564:	deadbeef          	jal	t4,7ffe0b4e <absimm+0x3acee61f>
80005568:	deadbeef          	jal	t4,7ffe0b52 <absimm+0x3acee623>
8000556c:	deadbeef          	jal	t4,7ffe0b56 <absimm+0x3acee627>
80005570:	deadbeef          	jal	t4,7ffe0b5a <absimm+0x3acee62b>
80005574:	deadbeef          	jal	t4,7ffe0b5e <absimm+0x3acee62f>
80005578:	deadbeef          	jal	t4,7ffe0b62 <absimm+0x3acee633>
8000557c:	deadbeef          	jal	t4,7ffe0b66 <absimm+0x3acee637>
80005580:	deadbeef          	jal	t4,7ffe0b6a <absimm+0x3acee63b>
80005584:	deadbeef          	jal	t4,7ffe0b6e <absimm+0x3acee63f>
80005588:	deadbeef          	jal	t4,7ffe0b72 <absimm+0x3acee643>
8000558c:	deadbeef          	jal	t4,7ffe0b76 <absimm+0x3acee647>
80005590:	deadbeef          	jal	t4,7ffe0b7a <absimm+0x3acee64b>
80005594:	deadbeef          	jal	t4,7ffe0b7e <absimm+0x3acee64f>
80005598:	deadbeef          	jal	t4,7ffe0b82 <absimm+0x3acee653>
8000559c:	deadbeef          	jal	t4,7ffe0b86 <absimm+0x3acee657>
800055a0:	deadbeef          	jal	t4,7ffe0b8a <absimm+0x3acee65b>
800055a4:	deadbeef          	jal	t4,7ffe0b8e <absimm+0x3acee65f>
800055a8:	deadbeef          	jal	t4,7ffe0b92 <absimm+0x3acee663>
800055ac:	deadbeef          	jal	t4,7ffe0b96 <absimm+0x3acee667>
800055b0:	deadbeef          	jal	t4,7ffe0b9a <absimm+0x3acee66b>
800055b4:	deadbeef          	jal	t4,7ffe0b9e <absimm+0x3acee66f>
800055b8:	deadbeef          	jal	t4,7ffe0ba2 <absimm+0x3acee673>
800055bc:	deadbeef          	jal	t4,7ffe0ba6 <absimm+0x3acee677>
800055c0:	deadbeef          	jal	t4,7ffe0baa <absimm+0x3acee67b>
800055c4:	deadbeef          	jal	t4,7ffe0bae <absimm+0x3acee67f>
800055c8:	deadbeef          	jal	t4,7ffe0bb2 <absimm+0x3acee683>
800055cc:	deadbeef          	jal	t4,7ffe0bb6 <absimm+0x3acee687>
800055d0:	deadbeef          	jal	t4,7ffe0bba <absimm+0x3acee68b>
800055d4:	deadbeef          	jal	t4,7ffe0bbe <absimm+0x3acee68f>
800055d8:	deadbeef          	jal	t4,7ffe0bc2 <absimm+0x3acee693>
800055dc:	deadbeef          	jal	t4,7ffe0bc6 <absimm+0x3acee697>
800055e0:	deadbeef          	jal	t4,7ffe0bca <absimm+0x3acee69b>
800055e4:	deadbeef          	jal	t4,7ffe0bce <absimm+0x3acee69f>
800055e8:	deadbeef          	jal	t4,7ffe0bd2 <absimm+0x3acee6a3>
800055ec:	deadbeef          	jal	t4,7ffe0bd6 <absimm+0x3acee6a7>
800055f0:	deadbeef          	jal	t4,7ffe0bda <absimm+0x3acee6ab>
800055f4:	deadbeef          	jal	t4,7ffe0bde <absimm+0x3acee6af>
800055f8:	deadbeef          	jal	t4,7ffe0be2 <absimm+0x3acee6b3>
800055fc:	deadbeef          	jal	t4,7ffe0be6 <absimm+0x3acee6b7>
80005600:	deadbeef          	jal	t4,7ffe0bea <absimm+0x3acee6bb>
80005604:	deadbeef          	jal	t4,7ffe0bee <absimm+0x3acee6bf>
80005608:	deadbeef          	jal	t4,7ffe0bf2 <absimm+0x3acee6c3>
8000560c:	deadbeef          	jal	t4,7ffe0bf6 <absimm+0x3acee6c7>
80005610:	deadbeef          	jal	t4,7ffe0bfa <absimm+0x3acee6cb>
80005614:	deadbeef          	jal	t4,7ffe0bfe <absimm+0x3acee6cf>
80005618:	deadbeef          	jal	t4,7ffe0c02 <absimm+0x3acee6d3>
8000561c:	deadbeef          	jal	t4,7ffe0c06 <absimm+0x3acee6d7>
80005620:	deadbeef          	jal	t4,7ffe0c0a <absimm+0x3acee6db>
80005624:	deadbeef          	jal	t4,7ffe0c0e <absimm+0x3acee6df>
80005628:	deadbeef          	jal	t4,7ffe0c12 <absimm+0x3acee6e3>
8000562c:	deadbeef          	jal	t4,7ffe0c16 <absimm+0x3acee6e7>
80005630:	deadbeef          	jal	t4,7ffe0c1a <absimm+0x3acee6eb>
80005634:	deadbeef          	jal	t4,7ffe0c1e <absimm+0x3acee6ef>
80005638:	deadbeef          	jal	t4,7ffe0c22 <absimm+0x3acee6f3>
8000563c:	deadbeef          	jal	t4,7ffe0c26 <absimm+0x3acee6f7>
80005640:	deadbeef          	jal	t4,7ffe0c2a <absimm+0x3acee6fb>
80005644:	deadbeef          	jal	t4,7ffe0c2e <absimm+0x3acee6ff>
80005648:	deadbeef          	jal	t4,7ffe0c32 <absimm+0x3acee703>
8000564c:	deadbeef          	jal	t4,7ffe0c36 <absimm+0x3acee707>
80005650:	deadbeef          	jal	t4,7ffe0c3a <absimm+0x3acee70b>
80005654:	deadbeef          	jal	t4,7ffe0c3e <absimm+0x3acee70f>
80005658:	deadbeef          	jal	t4,7ffe0c42 <absimm+0x3acee713>
8000565c:	deadbeef          	jal	t4,7ffe0c46 <absimm+0x3acee717>
80005660:	deadbeef          	jal	t4,7ffe0c4a <absimm+0x3acee71b>
80005664:	deadbeef          	jal	t4,7ffe0c4e <absimm+0x3acee71f>
80005668:	deadbeef          	jal	t4,7ffe0c52 <absimm+0x3acee723>
8000566c:	deadbeef          	jal	t4,7ffe0c56 <absimm+0x3acee727>
80005670:	deadbeef          	jal	t4,7ffe0c5a <absimm+0x3acee72b>
80005674:	deadbeef          	jal	t4,7ffe0c5e <absimm+0x3acee72f>
80005678:	deadbeef          	jal	t4,7ffe0c62 <absimm+0x3acee733>
8000567c:	deadbeef          	jal	t4,7ffe0c66 <absimm+0x3acee737>
80005680:	deadbeef          	jal	t4,7ffe0c6a <absimm+0x3acee73b>
80005684:	deadbeef          	jal	t4,7ffe0c6e <absimm+0x3acee73f>
80005688:	deadbeef          	jal	t4,7ffe0c72 <absimm+0x3acee743>
8000568c:	deadbeef          	jal	t4,7ffe0c76 <absimm+0x3acee747>
80005690:	deadbeef          	jal	t4,7ffe0c7a <absimm+0x3acee74b>
80005694:	deadbeef          	jal	t4,7ffe0c7e <absimm+0x3acee74f>
80005698:	deadbeef          	jal	t4,7ffe0c82 <absimm+0x3acee753>
8000569c:	deadbeef          	jal	t4,7ffe0c86 <absimm+0x3acee757>
800056a0:	deadbeef          	jal	t4,7ffe0c8a <absimm+0x3acee75b>
800056a4:	deadbeef          	jal	t4,7ffe0c8e <absimm+0x3acee75f>
800056a8:	deadbeef          	jal	t4,7ffe0c92 <absimm+0x3acee763>
800056ac:	deadbeef          	jal	t4,7ffe0c96 <absimm+0x3acee767>
800056b0:	deadbeef          	jal	t4,7ffe0c9a <absimm+0x3acee76b>
800056b4:	deadbeef          	jal	t4,7ffe0c9e <absimm+0x3acee76f>
800056b8:	deadbeef          	jal	t4,7ffe0ca2 <absimm+0x3acee773>
800056bc:	deadbeef          	jal	t4,7ffe0ca6 <absimm+0x3acee777>
800056c0:	deadbeef          	jal	t4,7ffe0caa <absimm+0x3acee77b>
800056c4:	deadbeef          	jal	t4,7ffe0cae <absimm+0x3acee77f>
800056c8:	deadbeef          	jal	t4,7ffe0cb2 <absimm+0x3acee783>
800056cc:	deadbeef          	jal	t4,7ffe0cb6 <absimm+0x3acee787>
800056d0:	deadbeef          	jal	t4,7ffe0cba <absimm+0x3acee78b>
800056d4:	deadbeef          	jal	t4,7ffe0cbe <absimm+0x3acee78f>
800056d8:	deadbeef          	jal	t4,7ffe0cc2 <absimm+0x3acee793>
800056dc:	deadbeef          	jal	t4,7ffe0cc6 <absimm+0x3acee797>
800056e0:	deadbeef          	jal	t4,7ffe0cca <absimm+0x3acee79b>
800056e4:	deadbeef          	jal	t4,7ffe0cce <absimm+0x3acee79f>
800056e8:	deadbeef          	jal	t4,7ffe0cd2 <absimm+0x3acee7a3>
800056ec:	deadbeef          	jal	t4,7ffe0cd6 <absimm+0x3acee7a7>
800056f0:	deadbeef          	jal	t4,7ffe0cda <absimm+0x3acee7ab>
800056f4:	deadbeef          	jal	t4,7ffe0cde <absimm+0x3acee7af>
800056f8:	deadbeef          	jal	t4,7ffe0ce2 <absimm+0x3acee7b3>
800056fc:	deadbeef          	jal	t4,7ffe0ce6 <absimm+0x3acee7b7>
80005700:	deadbeef          	jal	t4,7ffe0cea <absimm+0x3acee7bb>
80005704:	deadbeef          	jal	t4,7ffe0cee <absimm+0x3acee7bf>
80005708:	deadbeef          	jal	t4,7ffe0cf2 <absimm+0x3acee7c3>
8000570c:	deadbeef          	jal	t4,7ffe0cf6 <absimm+0x3acee7c7>
80005710:	deadbeef          	jal	t4,7ffe0cfa <absimm+0x3acee7cb>
80005714:	deadbeef          	jal	t4,7ffe0cfe <absimm+0x3acee7cf>
80005718:	deadbeef          	jal	t4,7ffe0d02 <absimm+0x3acee7d3>
8000571c:	deadbeef          	jal	t4,7ffe0d06 <absimm+0x3acee7d7>
80005720:	deadbeef          	jal	t4,7ffe0d0a <absimm+0x3acee7db>
80005724:	deadbeef          	jal	t4,7ffe0d0e <absimm+0x3acee7df>
80005728:	deadbeef          	jal	t4,7ffe0d12 <absimm+0x3acee7e3>
8000572c:	deadbeef          	jal	t4,7ffe0d16 <absimm+0x3acee7e7>
80005730:	deadbeef          	jal	t4,7ffe0d1a <absimm+0x3acee7eb>
80005734:	deadbeef          	jal	t4,7ffe0d1e <absimm+0x3acee7ef>
80005738:	deadbeef          	jal	t4,7ffe0d22 <absimm+0x3acee7f3>
8000573c:	deadbeef          	jal	t4,7ffe0d26 <absimm+0x3acee7f7>
80005740:	deadbeef          	jal	t4,7ffe0d2a <absimm+0x3acee7fb>
80005744:	deadbeef          	jal	t4,7ffe0d2e <absimm+0x3acee7ff>
80005748:	deadbeef          	jal	t4,7ffe0d32 <absimm+0x3acee803>
8000574c:	deadbeef          	jal	t4,7ffe0d36 <absimm+0x3acee807>
80005750:	deadbeef          	jal	t4,7ffe0d3a <absimm+0x3acee80b>
80005754:	deadbeef          	jal	t4,7ffe0d3e <absimm+0x3acee80f>
80005758:	deadbeef          	jal	t4,7ffe0d42 <absimm+0x3acee813>
8000575c:	deadbeef          	jal	t4,7ffe0d46 <absimm+0x3acee817>
80005760:	deadbeef          	jal	t4,7ffe0d4a <absimm+0x3acee81b>
80005764:	deadbeef          	jal	t4,7ffe0d4e <absimm+0x3acee81f>
80005768:	deadbeef          	jal	t4,7ffe0d52 <absimm+0x3acee823>
8000576c:	deadbeef          	jal	t4,7ffe0d56 <absimm+0x3acee827>
80005770:	deadbeef          	jal	t4,7ffe0d5a <absimm+0x3acee82b>
80005774:	deadbeef          	jal	t4,7ffe0d5e <absimm+0x3acee82f>
80005778:	deadbeef          	jal	t4,7ffe0d62 <absimm+0x3acee833>
8000577c:	deadbeef          	jal	t4,7ffe0d66 <absimm+0x3acee837>
80005780:	deadbeef          	jal	t4,7ffe0d6a <absimm+0x3acee83b>
80005784:	deadbeef          	jal	t4,7ffe0d6e <absimm+0x3acee83f>
80005788:	deadbeef          	jal	t4,7ffe0d72 <absimm+0x3acee843>
8000578c:	deadbeef          	jal	t4,7ffe0d76 <absimm+0x3acee847>
80005790:	deadbeef          	jal	t4,7ffe0d7a <absimm+0x3acee84b>
80005794:	deadbeef          	jal	t4,7ffe0d7e <absimm+0x3acee84f>
80005798:	deadbeef          	jal	t4,7ffe0d82 <absimm+0x3acee853>
8000579c:	deadbeef          	jal	t4,7ffe0d86 <absimm+0x3acee857>
800057a0:	deadbeef          	jal	t4,7ffe0d8a <absimm+0x3acee85b>
800057a4:	deadbeef          	jal	t4,7ffe0d8e <absimm+0x3acee85f>
800057a8:	deadbeef          	jal	t4,7ffe0d92 <absimm+0x3acee863>
800057ac:	deadbeef          	jal	t4,7ffe0d96 <absimm+0x3acee867>
800057b0:	deadbeef          	jal	t4,7ffe0d9a <absimm+0x3acee86b>
800057b4:	deadbeef          	jal	t4,7ffe0d9e <absimm+0x3acee86f>
800057b8:	deadbeef          	jal	t4,7ffe0da2 <absimm+0x3acee873>
800057bc:	deadbeef          	jal	t4,7ffe0da6 <absimm+0x3acee877>
800057c0:	deadbeef          	jal	t4,7ffe0daa <absimm+0x3acee87b>
800057c4:	deadbeef          	jal	t4,7ffe0dae <absimm+0x3acee87f>
800057c8:	deadbeef          	jal	t4,7ffe0db2 <absimm+0x3acee883>
800057cc:	deadbeef          	jal	t4,7ffe0db6 <absimm+0x3acee887>
800057d0:	deadbeef          	jal	t4,7ffe0dba <absimm+0x3acee88b>
800057d4:	deadbeef          	jal	t4,7ffe0dbe <absimm+0x3acee88f>
800057d8:	deadbeef          	jal	t4,7ffe0dc2 <absimm+0x3acee893>
800057dc:	deadbeef          	jal	t4,7ffe0dc6 <absimm+0x3acee897>
800057e0:	deadbeef          	jal	t4,7ffe0dca <absimm+0x3acee89b>
800057e4:	deadbeef          	jal	t4,7ffe0dce <absimm+0x3acee89f>
800057e8:	deadbeef          	jal	t4,7ffe0dd2 <absimm+0x3acee8a3>
800057ec:	deadbeef          	jal	t4,7ffe0dd6 <absimm+0x3acee8a7>
800057f0:	deadbeef          	jal	t4,7ffe0dda <absimm+0x3acee8ab>
800057f4:	deadbeef          	jal	t4,7ffe0dde <absimm+0x3acee8af>
800057f8:	deadbeef          	jal	t4,7ffe0de2 <absimm+0x3acee8b3>
800057fc:	deadbeef          	jal	t4,7ffe0de6 <absimm+0x3acee8b7>
80005800:	deadbeef          	jal	t4,7ffe0dea <absimm+0x3acee8bb>
80005804:	deadbeef          	jal	t4,7ffe0dee <absimm+0x3acee8bf>
80005808:	deadbeef          	jal	t4,7ffe0df2 <absimm+0x3acee8c3>
8000580c:	deadbeef          	jal	t4,7ffe0df6 <absimm+0x3acee8c7>
80005810:	deadbeef          	jal	t4,7ffe0dfa <absimm+0x3acee8cb>
80005814:	deadbeef          	jal	t4,7ffe0dfe <absimm+0x3acee8cf>
80005818:	deadbeef          	jal	t4,7ffe0e02 <absimm+0x3acee8d3>
8000581c:	deadbeef          	jal	t4,7ffe0e06 <absimm+0x3acee8d7>
80005820:	deadbeef          	jal	t4,7ffe0e0a <absimm+0x3acee8db>
80005824:	deadbeef          	jal	t4,7ffe0e0e <absimm+0x3acee8df>
80005828:	deadbeef          	jal	t4,7ffe0e12 <absimm+0x3acee8e3>
8000582c:	deadbeef          	jal	t4,7ffe0e16 <absimm+0x3acee8e7>
80005830:	deadbeef          	jal	t4,7ffe0e1a <absimm+0x3acee8eb>
80005834:	deadbeef          	jal	t4,7ffe0e1e <absimm+0x3acee8ef>
80005838:	deadbeef          	jal	t4,7ffe0e22 <absimm+0x3acee8f3>
8000583c:	deadbeef          	jal	t4,7ffe0e26 <absimm+0x3acee8f7>
80005840:	deadbeef          	jal	t4,7ffe0e2a <absimm+0x3acee8fb>
80005844:	deadbeef          	jal	t4,7ffe0e2e <absimm+0x3acee8ff>
80005848:	deadbeef          	jal	t4,7ffe0e32 <absimm+0x3acee903>
8000584c:	deadbeef          	jal	t4,7ffe0e36 <absimm+0x3acee907>
80005850:	deadbeef          	jal	t4,7ffe0e3a <absimm+0x3acee90b>
80005854:	deadbeef          	jal	t4,7ffe0e3e <absimm+0x3acee90f>
80005858:	deadbeef          	jal	t4,7ffe0e42 <absimm+0x3acee913>
8000585c:	deadbeef          	jal	t4,7ffe0e46 <absimm+0x3acee917>
80005860:	deadbeef          	jal	t4,7ffe0e4a <absimm+0x3acee91b>
80005864:	deadbeef          	jal	t4,7ffe0e4e <absimm+0x3acee91f>
80005868:	deadbeef          	jal	t4,7ffe0e52 <absimm+0x3acee923>
8000586c:	deadbeef          	jal	t4,7ffe0e56 <absimm+0x3acee927>
80005870:	deadbeef          	jal	t4,7ffe0e5a <absimm+0x3acee92b>
80005874:	deadbeef          	jal	t4,7ffe0e5e <absimm+0x3acee92f>
80005878:	deadbeef          	jal	t4,7ffe0e62 <absimm+0x3acee933>
8000587c:	deadbeef          	jal	t4,7ffe0e66 <absimm+0x3acee937>
80005880:	deadbeef          	jal	t4,7ffe0e6a <absimm+0x3acee93b>
80005884:	deadbeef          	jal	t4,7ffe0e6e <absimm+0x3acee93f>
80005888:	deadbeef          	jal	t4,7ffe0e72 <absimm+0x3acee943>
8000588c:	deadbeef          	jal	t4,7ffe0e76 <absimm+0x3acee947>
80005890:	deadbeef          	jal	t4,7ffe0e7a <absimm+0x3acee94b>
80005894:	deadbeef          	jal	t4,7ffe0e7e <absimm+0x3acee94f>
80005898:	deadbeef          	jal	t4,7ffe0e82 <absimm+0x3acee953>
8000589c:	deadbeef          	jal	t4,7ffe0e86 <absimm+0x3acee957>
800058a0:	deadbeef          	jal	t4,7ffe0e8a <absimm+0x3acee95b>
800058a4:	deadbeef          	jal	t4,7ffe0e8e <absimm+0x3acee95f>
800058a8:	deadbeef          	jal	t4,7ffe0e92 <absimm+0x3acee963>
800058ac:	deadbeef          	jal	t4,7ffe0e96 <absimm+0x3acee967>
800058b0:	deadbeef          	jal	t4,7ffe0e9a <absimm+0x3acee96b>
800058b4:	deadbeef          	jal	t4,7ffe0e9e <absimm+0x3acee96f>
800058b8:	deadbeef          	jal	t4,7ffe0ea2 <absimm+0x3acee973>
800058bc:	deadbeef          	jal	t4,7ffe0ea6 <absimm+0x3acee977>
800058c0:	deadbeef          	jal	t4,7ffe0eaa <absimm+0x3acee97b>
800058c4:	deadbeef          	jal	t4,7ffe0eae <absimm+0x3acee97f>
800058c8:	deadbeef          	jal	t4,7ffe0eb2 <absimm+0x3acee983>
800058cc:	deadbeef          	jal	t4,7ffe0eb6 <absimm+0x3acee987>
800058d0:	deadbeef          	jal	t4,7ffe0eba <absimm+0x3acee98b>
800058d4:	deadbeef          	jal	t4,7ffe0ebe <absimm+0x3acee98f>
800058d8:	deadbeef          	jal	t4,7ffe0ec2 <absimm+0x3acee993>
800058dc:	deadbeef          	jal	t4,7ffe0ec6 <absimm+0x3acee997>
800058e0:	deadbeef          	jal	t4,7ffe0eca <absimm+0x3acee99b>
800058e4:	deadbeef          	jal	t4,7ffe0ece <absimm+0x3acee99f>
800058e8:	deadbeef          	jal	t4,7ffe0ed2 <absimm+0x3acee9a3>
800058ec:	deadbeef          	jal	t4,7ffe0ed6 <absimm+0x3acee9a7>
800058f0:	deadbeef          	jal	t4,7ffe0eda <absimm+0x3acee9ab>
800058f4:	deadbeef          	jal	t4,7ffe0ede <absimm+0x3acee9af>
800058f8:	deadbeef          	jal	t4,7ffe0ee2 <absimm+0x3acee9b3>
800058fc:	deadbeef          	jal	t4,7ffe0ee6 <absimm+0x3acee9b7>
80005900:	deadbeef          	jal	t4,7ffe0eea <absimm+0x3acee9bb>
80005904:	deadbeef          	jal	t4,7ffe0eee <absimm+0x3acee9bf>
80005908:	deadbeef          	jal	t4,7ffe0ef2 <absimm+0x3acee9c3>
8000590c:	deadbeef          	jal	t4,7ffe0ef6 <absimm+0x3acee9c7>
80005910:	deadbeef          	jal	t4,7ffe0efa <absimm+0x3acee9cb>
80005914:	deadbeef          	jal	t4,7ffe0efe <absimm+0x3acee9cf>
80005918:	deadbeef          	jal	t4,7ffe0f02 <absimm+0x3acee9d3>
8000591c:	deadbeef          	jal	t4,7ffe0f06 <absimm+0x3acee9d7>
80005920:	deadbeef          	jal	t4,7ffe0f0a <absimm+0x3acee9db>
80005924:	deadbeef          	jal	t4,7ffe0f0e <absimm+0x3acee9df>
80005928:	deadbeef          	jal	t4,7ffe0f12 <absimm+0x3acee9e3>
8000592c:	deadbeef          	jal	t4,7ffe0f16 <absimm+0x3acee9e7>
80005930:	deadbeef          	jal	t4,7ffe0f1a <absimm+0x3acee9eb>
80005934:	deadbeef          	jal	t4,7ffe0f1e <absimm+0x3acee9ef>
80005938:	deadbeef          	jal	t4,7ffe0f22 <absimm+0x3acee9f3>
8000593c:	deadbeef          	jal	t4,7ffe0f26 <absimm+0x3acee9f7>
80005940:	deadbeef          	jal	t4,7ffe0f2a <absimm+0x3acee9fb>
80005944:	deadbeef          	jal	t4,7ffe0f2e <absimm+0x3acee9ff>
80005948:	deadbeef          	jal	t4,7ffe0f32 <absimm+0x3aceea03>
8000594c:	deadbeef          	jal	t4,7ffe0f36 <absimm+0x3aceea07>
80005950:	deadbeef          	jal	t4,7ffe0f3a <absimm+0x3aceea0b>
80005954:	deadbeef          	jal	t4,7ffe0f3e <absimm+0x3aceea0f>
80005958:	deadbeef          	jal	t4,7ffe0f42 <absimm+0x3aceea13>
8000595c:	deadbeef          	jal	t4,7ffe0f46 <absimm+0x3aceea17>
80005960:	deadbeef          	jal	t4,7ffe0f4a <absimm+0x3aceea1b>
80005964:	deadbeef          	jal	t4,7ffe0f4e <absimm+0x3aceea1f>
80005968:	deadbeef          	jal	t4,7ffe0f52 <absimm+0x3aceea23>
8000596c:	deadbeef          	jal	t4,7ffe0f56 <absimm+0x3aceea27>

80005970 <signature_x1_1>:
80005970:	deadbeef          	jal	t4,7ffe0f5a <absimm+0x3aceea2b>
80005974:	deadbeef          	jal	t4,7ffe0f5e <absimm+0x3aceea2f>
80005978:	deadbeef          	jal	t4,7ffe0f62 <absimm+0x3aceea33>
8000597c:	deadbeef          	jal	t4,7ffe0f66 <absimm+0x3aceea37>
80005980:	deadbeef          	jal	t4,7ffe0f6a <absimm+0x3aceea3b>
80005984:	deadbeef          	jal	t4,7ffe0f6e <absimm+0x3aceea3f>
80005988:	deadbeef          	jal	t4,7ffe0f72 <absimm+0x3aceea43>
8000598c:	deadbeef          	jal	t4,7ffe0f76 <absimm+0x3aceea47>
80005990:	deadbeef          	jal	t4,7ffe0f7a <absimm+0x3aceea4b>
80005994:	deadbeef          	jal	t4,7ffe0f7e <absimm+0x3aceea4f>
80005998:	deadbeef          	jal	t4,7ffe0f82 <absimm+0x3aceea53>
8000599c:	deadbeef          	jal	t4,7ffe0f86 <absimm+0x3aceea57>
800059a0:	deadbeef          	jal	t4,7ffe0f8a <absimm+0x3aceea5b>
800059a4:	deadbeef          	jal	t4,7ffe0f8e <absimm+0x3aceea5f>
800059a8:	deadbeef          	jal	t4,7ffe0f92 <absimm+0x3aceea63>
800059ac:	deadbeef          	jal	t4,7ffe0f96 <absimm+0x3aceea67>
800059b0:	deadbeef          	jal	t4,7ffe0f9a <absimm+0x3aceea6b>
800059b4:	deadbeef          	jal	t4,7ffe0f9e <absimm+0x3aceea6f>
800059b8:	deadbeef          	jal	t4,7ffe0fa2 <absimm+0x3aceea73>
800059bc:	deadbeef          	jal	t4,7ffe0fa6 <absimm+0x3aceea77>
800059c0:	deadbeef          	jal	t4,7ffe0faa <absimm+0x3aceea7b>
800059c4:	deadbeef          	jal	t4,7ffe0fae <absimm+0x3aceea7f>
800059c8:	deadbeef          	jal	t4,7ffe0fb2 <absimm+0x3aceea83>
800059cc:	deadbeef          	jal	t4,7ffe0fb6 <absimm+0x3aceea87>
800059d0:	deadbeef          	jal	t4,7ffe0fba <absimm+0x3aceea8b>
800059d4:	deadbeef          	jal	t4,7ffe0fbe <absimm+0x3aceea8f>
800059d8:	deadbeef          	jal	t4,7ffe0fc2 <absimm+0x3aceea93>
800059dc:	deadbeef          	jal	t4,7ffe0fc6 <absimm+0x3aceea97>
800059e0:	deadbeef          	jal	t4,7ffe0fca <absimm+0x3aceea9b>
800059e4:	deadbeef          	jal	t4,7ffe0fce <absimm+0x3aceea9f>
800059e8:	deadbeef          	jal	t4,7ffe0fd2 <absimm+0x3aceeaa3>
800059ec:	deadbeef          	jal	t4,7ffe0fd6 <absimm+0x3aceeaa7>
800059f0:	deadbeef          	jal	t4,7ffe0fda <absimm+0x3aceeaab>
800059f4:	deadbeef          	jal	t4,7ffe0fde <absimm+0x3aceeaaf>
800059f8:	deadbeef          	jal	t4,7ffe0fe2 <absimm+0x3aceeab3>
800059fc:	deadbeef          	jal	t4,7ffe0fe6 <absimm+0x3aceeab7>
80005a00:	deadbeef          	jal	t4,7ffe0fea <absimm+0x3aceeabb>
80005a04:	deadbeef          	jal	t4,7ffe0fee <absimm+0x3aceeabf>
80005a08:	deadbeef          	jal	t4,7ffe0ff2 <absimm+0x3aceeac3>
80005a0c:	deadbeef          	jal	t4,7ffe0ff6 <absimm+0x3aceeac7>
80005a10:	deadbeef          	jal	t4,7ffe0ffa <absimm+0x3aceeacb>
80005a14:	deadbeef          	jal	t4,7ffe0ffe <absimm+0x3aceeacf>
80005a18:	deadbeef          	jal	t4,7ffe1002 <absimm+0x3aceead3>
80005a1c:	deadbeef          	jal	t4,7ffe1006 <absimm+0x3aceead7>
80005a20:	deadbeef          	jal	t4,7ffe100a <absimm+0x3aceeadb>
80005a24:	deadbeef          	jal	t4,7ffe100e <absimm+0x3aceeadf>
80005a28:	deadbeef          	jal	t4,7ffe1012 <absimm+0x3aceeae3>
80005a2c:	deadbeef          	jal	t4,7ffe1016 <absimm+0x3aceeae7>
80005a30:	deadbeef          	jal	t4,7ffe101a <absimm+0x3aceeaeb>
80005a34:	deadbeef          	jal	t4,7ffe101e <absimm+0x3aceeaef>

80005a38 <sig_end_canary>:
80005a38:	a309                	j	80005f3a <_end+0x4fa>
80005a3a:	6f5c                	.2byte	0x6f5c

80005a3c <rvtest_sig_end>:
80005a3c:	0000                	unimp
	...

Disassembly of section .riscv.attributes:

00000000 <.riscv.attributes>:
   0:	1e41                	add	t3,t3,-16 # 7ffffff0 <absimm+0x3ad0dac1>
   2:	0000                	unimp
   4:	7200                	.2byte	0x7200
   6:	7369                	lui	t1,0xffffa
   8:	01007663          	bgeu	zero,a6,14 <MMODE_SIG+0x11>
   c:	0014                	.2byte	0x14
   e:	0000                	unimp
  10:	7205                	lui	tp,0xfffe1
  12:	3376                	.2byte	0x3376
  14:	6932                	.2byte	0x6932
  16:	7032                	.2byte	0x7032
  18:	5f31                	li	t5,-20
  1a:	30703263          	.4byte	0x30703263
	...

Disassembly of section .debug_line:

00000000 <.debug_line>:
   0:	0e1a                	sll	t3,t3,0x6
   2:	0000                	unimp
   4:	0005                	c.nop	1
   6:	0004                	.2byte	0x4
   8:	002e                	c.slli	zero,0xb
   a:	0000                	unimp
   c:	0101                	add	sp,sp,0
   e:	fb01                	bnez	a4,ffffff1e <imm12+0x44e>
  10:	0d0e                	sll	s10,s10,0x3
  12:	0100                	add	s0,sp,128
  14:	0101                	add	sp,sp,0
  16:	0001                	nop
  18:	0000                	unimp
  1a:	0001                	nop
  1c:	0100                	add	s0,sp,128
  1e:	0101                	add	sp,sp,0
  20:	021f 0000 0000      	.byte	0x1f, 0x02, 0x00, 0x00, 0x00, 0x00
  26:	0000005b          	.4byte	0x5b
  2a:	0102                	c.slli64	sp
  2c:	021f 020f 00c0      	.byte	0x1f, 0x02, 0x0f, 0x02, 0xc0, 0x00
  32:	0000                	unimp
  34:	c001                	beqz	s0,34 <MMODE_SIG+0x31>
  36:	0000                	unimp
  38:	0100                	add	s0,sp,128
  3a:	0500                	add	s0,sp,640
  3c:	0002                	c.slli64	zero
  3e:	0000                	unimp
  40:	0380                	add	s0,sp,448
  42:	0119                	add	sp,sp,6
  44:	c0090603          	lb	a2,-1024(s2) # c00 <offset+0xb38>
  48:	0100                	add	s0,sp,128
  4a:	20090503          	lb	a0,512(s2)
  4e:	0100                	add	s0,sp,128
  50:	0c090503          	lb	a0,192(s2)
  54:	0100                	add	s0,sp,128
  56:	0a090503          	lb	a0,160(s2)
  5a:	0100                	add	s0,sp,128
  5c:	0c090503          	lb	a0,192(s2)
  60:	0100                	add	s0,sp,128
  62:	0c090503          	lb	a0,192(s2)
  66:	0100                	add	s0,sp,128
  68:	10090503          	lb	a0,256(s2)
  6c:	0100                	add	s0,sp,128
  6e:	12090503          	lb	a0,288(s2)
  72:	0100                	add	s0,sp,128
  74:	0e090503          	lb	a0,224(s2)
  78:	0100                	add	s0,sp,128
  7a:	0e090503          	lb	a0,224(s2)
  7e:	0100                	add	s0,sp,128
  80:	10090503          	lb	a0,256(s2)
  84:	0100                	add	s0,sp,128
  86:	08090503          	lb	a0,128(s2)
  8a:	0100                	add	s0,sp,128
  8c:	08090503          	lb	a0,128(s2)
  90:	0100                	add	s0,sp,128
  92:	0c090503          	lb	a0,192(s2)
  96:	0100                	add	s0,sp,128
  98:	0e090503          	lb	a0,224(s2)
  9c:	0100                	add	s0,sp,128
  9e:	0e090503          	lb	a0,224(s2)
  a2:	0100                	add	s0,sp,128
  a4:	10090503          	lb	a0,256(s2)
  a8:	0100                	add	s0,sp,128
  aa:	0e090503          	lb	a0,224(s2)
  ae:	0100                	add	s0,sp,128
  b0:	0e090503          	lb	a0,224(s2)
  b4:	0100                	add	s0,sp,128
  b6:	0e090503          	lb	a0,224(s2)
  ba:	0100                	add	s0,sp,128
  bc:	0c090503          	lb	a0,192(s2)
  c0:	0100                	add	s0,sp,128
  c2:	08090503          	lb	a0,128(s2)
  c6:	0100                	add	s0,sp,128
  c8:	0a090503          	lb	a0,160(s2)
  cc:	0100                	add	s0,sp,128
  ce:	0e090503          	lb	a0,224(s2)
  d2:	0100                	add	s0,sp,128
  d4:	26090103          	lb	sp,608(s2)
  d8:	0100                	add	s0,sp,128
  da:	20090503          	lb	a0,512(s2)
  de:	0100                	add	s0,sp,128
  e0:	12090503          	lb	a0,288(s2)
  e4:	0100                	add	s0,sp,128
  e6:	0e090503          	lb	a0,224(s2)
  ea:	0100                	add	s0,sp,128
  ec:	0c090503          	lb	a0,192(s2)
  f0:	0100                	add	s0,sp,128
  f2:	0e090503          	lb	a0,224(s2)
  f6:	0100                	add	s0,sp,128
  f8:	0c090503          	lb	a0,192(s2)
  fc:	0100                	add	s0,sp,128
  fe:	12090503          	lb	a0,288(s2)
 102:	0100                	add	s0,sp,128
 104:	12090503          	lb	a0,288(s2)
 108:	0100                	add	s0,sp,128
 10a:	10090503          	lb	a0,256(s2)
 10e:	0100                	add	s0,sp,128
 110:	0c090503          	lb	a0,192(s2)
 114:	0100                	add	s0,sp,128
 116:	0e090503          	lb	a0,224(s2)
 11a:	0100                	add	s0,sp,128
 11c:	0e090503          	lb	a0,224(s2)
 120:	0100                	add	s0,sp,128
 122:	0c090503          	lb	a0,192(s2)
 126:	0100                	add	s0,sp,128
 128:	10090503          	lb	a0,256(s2)
 12c:	0100                	add	s0,sp,128
 12e:	0e090503          	lb	a0,224(s2)
 132:	0100                	add	s0,sp,128
 134:	0a090503          	lb	a0,160(s2)
 138:	0100                	add	s0,sp,128
 13a:	0c090503          	lb	a0,192(s2)
 13e:	0100                	add	s0,sp,128
 140:	0e090503          	lb	a0,224(s2)
 144:	0100                	add	s0,sp,128
 146:	0a090503          	lb	a0,160(s2)
 14a:	0100                	add	s0,sp,128
 14c:	0a090503          	lb	a0,160(s2)
 150:	0100                	add	s0,sp,128
 152:	0c090503          	lb	a0,192(s2)
 156:	0100                	add	s0,sp,128
 158:	0e090503          	lb	a0,224(s2)
 15c:	0100                	add	s0,sp,128
 15e:	12090503          	lb	a0,288(s2)
 162:	0100                	add	s0,sp,128
 164:	10090503          	lb	a0,256(s2)
 168:	0100                	add	s0,sp,128
 16a:	10090503          	lb	a0,256(s2)
 16e:	0100                	add	s0,sp,128
 170:	0c090503          	lb	a0,192(s2)
 174:	0100                	add	s0,sp,128
 176:	12090503          	lb	a0,288(s2)
 17a:	0100                	add	s0,sp,128
 17c:	0e090503          	lb	a0,224(s2)
 180:	0100                	add	s0,sp,128
 182:	0c090503          	lb	a0,192(s2)
 186:	0100                	add	s0,sp,128
 188:	12090503          	lb	a0,288(s2)
 18c:	0100                	add	s0,sp,128
 18e:	10090503          	lb	a0,256(s2)
 192:	0100                	add	s0,sp,128
 194:	0c090503          	lb	a0,192(s2)
 198:	0100                	add	s0,sp,128
 19a:	0e090503          	lb	a0,224(s2)
 19e:	0100                	add	s0,sp,128
 1a0:	10090503          	lb	a0,256(s2)
 1a4:	0100                	add	s0,sp,128
 1a6:	10090503          	lb	a0,256(s2)
 1aa:	0100                	add	s0,sp,128
 1ac:	0e090503          	lb	a0,224(s2)
 1b0:	0100                	add	s0,sp,128
 1b2:	0e090503          	lb	a0,224(s2)
 1b6:	0100                	add	s0,sp,128
 1b8:	0e090503          	lb	a0,224(s2)
 1bc:	0100                	add	s0,sp,128
 1be:	12090503          	lb	a0,288(s2)
 1c2:	0100                	add	s0,sp,128
 1c4:	0e090503          	lb	a0,224(s2)
 1c8:	0100                	add	s0,sp,128
 1ca:	12090503          	lb	a0,288(s2)
 1ce:	0100                	add	s0,sp,128
 1d0:	0e090503          	lb	a0,224(s2)
 1d4:	0100                	add	s0,sp,128
 1d6:	14090503          	lb	a0,320(s2)
 1da:	0100                	add	s0,sp,128
 1dc:	0e090503          	lb	a0,224(s2)
 1e0:	0100                	add	s0,sp,128
 1e2:	0e090503          	lb	a0,224(s2)
 1e6:	0100                	add	s0,sp,128
 1e8:	10090503          	lb	a0,256(s2)
 1ec:	0100                	add	s0,sp,128
 1ee:	14090503          	lb	a0,320(s2)
 1f2:	0100                	add	s0,sp,128
 1f4:	0c090503          	lb	a0,192(s2)
 1f8:	0100                	add	s0,sp,128
 1fa:	0c090503          	lb	a0,192(s2)
 1fe:	0100                	add	s0,sp,128
 200:	0e090503          	lb	a0,224(s2)
 204:	0100                	add	s0,sp,128
 206:	0c090503          	lb	a0,192(s2)
 20a:	0100                	add	s0,sp,128
 20c:	0e090503          	lb	a0,224(s2)
 210:	0100                	add	s0,sp,128
 212:	0c090503          	lb	a0,192(s2)
 216:	0100                	add	s0,sp,128
 218:	0e090503          	lb	a0,224(s2)
 21c:	0100                	add	s0,sp,128
 21e:	10090503          	lb	a0,256(s2)
 222:	0100                	add	s0,sp,128
 224:	0a090503          	lb	a0,160(s2)
 228:	0100                	add	s0,sp,128
 22a:	10090503          	lb	a0,256(s2)
 22e:	0100                	add	s0,sp,128
 230:	12090503          	lb	a0,288(s2)
 234:	0100                	add	s0,sp,128
 236:	0c090503          	lb	a0,192(s2)
 23a:	0100                	add	s0,sp,128
 23c:	0e090503          	lb	a0,224(s2)
 240:	0100                	add	s0,sp,128
 242:	0c090503          	lb	a0,192(s2)
 246:	0100                	add	s0,sp,128
 248:	0e090503          	lb	a0,224(s2)
 24c:	0100                	add	s0,sp,128
 24e:	0c090503          	lb	a0,192(s2)
 252:	0100                	add	s0,sp,128
 254:	0e090503          	lb	a0,224(s2)
 258:	0100                	add	s0,sp,128
 25a:	0a090503          	lb	a0,160(s2)
 25e:	0100                	add	s0,sp,128
 260:	0a090503          	lb	a0,160(s2)
 264:	0100                	add	s0,sp,128
 266:	10090503          	lb	a0,256(s2)
 26a:	0100                	add	s0,sp,128
 26c:	0c090503          	lb	a0,192(s2)
 270:	0100                	add	s0,sp,128
 272:	0e090503          	lb	a0,224(s2)
 276:	0100                	add	s0,sp,128
 278:	0c090503          	lb	a0,192(s2)
 27c:	0100                	add	s0,sp,128
 27e:	0c090503          	lb	a0,192(s2)
 282:	0100                	add	s0,sp,128
 284:	12090503          	lb	a0,288(s2)
 288:	0100                	add	s0,sp,128
 28a:	12090503          	lb	a0,288(s2)
 28e:	0100                	add	s0,sp,128
 290:	10090503          	lb	a0,256(s2)
 294:	0100                	add	s0,sp,128
 296:	10090503          	lb	a0,256(s2)
 29a:	0100                	add	s0,sp,128
 29c:	10090503          	lb	a0,256(s2)
 2a0:	0100                	add	s0,sp,128
 2a2:	14090503          	lb	a0,320(s2)
 2a6:	0100                	add	s0,sp,128
 2a8:	10090503          	lb	a0,256(s2)
 2ac:	0100                	add	s0,sp,128
 2ae:	10090503          	lb	a0,256(s2)
 2b2:	0100                	add	s0,sp,128
 2b4:	10090503          	lb	a0,256(s2)
 2b8:	0100                	add	s0,sp,128
 2ba:	12090503          	lb	a0,288(s2)
 2be:	0100                	add	s0,sp,128
 2c0:	10090503          	lb	a0,256(s2)
 2c4:	0100                	add	s0,sp,128
 2c6:	0a090503          	lb	a0,160(s2)
 2ca:	0100                	add	s0,sp,128
 2cc:	10090503          	lb	a0,256(s2)
 2d0:	0100                	add	s0,sp,128
 2d2:	10090503          	lb	a0,256(s2)
 2d6:	0100                	add	s0,sp,128
 2d8:	0a090503          	lb	a0,160(s2)
 2dc:	0100                	add	s0,sp,128
 2de:	10090503          	lb	a0,256(s2)
 2e2:	0100                	add	s0,sp,128
 2e4:	10090503          	lb	a0,256(s2)
 2e8:	0100                	add	s0,sp,128
 2ea:	0e090503          	lb	a0,224(s2)
 2ee:	0100                	add	s0,sp,128
 2f0:	0e090503          	lb	a0,224(s2)
 2f4:	0100                	add	s0,sp,128
 2f6:	0a090503          	lb	a0,160(s2)
 2fa:	0100                	add	s0,sp,128
 2fc:	10090503          	lb	a0,256(s2)
 300:	0100                	add	s0,sp,128
 302:	0a090503          	lb	a0,160(s2)
 306:	0100                	add	s0,sp,128
 308:	0a090503          	lb	a0,160(s2)
 30c:	0100                	add	s0,sp,128
 30e:	10090503          	lb	a0,256(s2)
 312:	0100                	add	s0,sp,128
 314:	10090503          	lb	a0,256(s2)
 318:	0100                	add	s0,sp,128
 31a:	0e090503          	lb	a0,224(s2)
 31e:	0100                	add	s0,sp,128
 320:	10090503          	lb	a0,256(s2)
 324:	0100                	add	s0,sp,128
 326:	10090503          	lb	a0,256(s2)
 32a:	0100                	add	s0,sp,128
 32c:	0a090503          	lb	a0,160(s2)
 330:	0100                	add	s0,sp,128
 332:	10090503          	lb	a0,256(s2)
 336:	0100                	add	s0,sp,128
 338:	10090503          	lb	a0,256(s2)
 33c:	0100                	add	s0,sp,128
 33e:	0e090503          	lb	a0,224(s2)
 342:	0100                	add	s0,sp,128
 344:	0e090503          	lb	a0,224(s2)
 348:	0100                	add	s0,sp,128
 34a:	10090503          	lb	a0,256(s2)
 34e:	0100                	add	s0,sp,128
 350:	16090503          	lb	a0,352(s2)
 354:	0100                	add	s0,sp,128
 356:	16090503          	lb	a0,352(s2)
 35a:	0100                	add	s0,sp,128
 35c:	10090503          	lb	a0,256(s2)
 360:	0100                	add	s0,sp,128
 362:	16090503          	lb	a0,352(s2)
 366:	0100                	add	s0,sp,128
 368:	16090503          	lb	a0,352(s2)
 36c:	0100                	add	s0,sp,128
 36e:	14090503          	lb	a0,320(s2)
 372:	0100                	add	s0,sp,128
 374:	14090503          	lb	a0,320(s2)
 378:	0100                	add	s0,sp,128
 37a:	10090503          	lb	a0,256(s2)
 37e:	0100                	add	s0,sp,128
 380:	16090503          	lb	a0,352(s2)
 384:	0100                	add	s0,sp,128
 386:	10090503          	lb	a0,256(s2)
 38a:	0100                	add	s0,sp,128
 38c:	10090503          	lb	a0,256(s2)
 390:	0100                	add	s0,sp,128
 392:	16090503          	lb	a0,352(s2)
 396:	0100                	add	s0,sp,128
 398:	16090503          	lb	a0,352(s2)
 39c:	0100                	add	s0,sp,128
 39e:	14090503          	lb	a0,320(s2)
 3a2:	0100                	add	s0,sp,128
 3a4:	16090503          	lb	a0,352(s2)
 3a8:	0100                	add	s0,sp,128
 3aa:	16090503          	lb	a0,352(s2)
 3ae:	0100                	add	s0,sp,128
 3b0:	10090503          	lb	a0,256(s2)
 3b4:	0100                	add	s0,sp,128
 3b6:	16090503          	lb	a0,352(s2)
 3ba:	0100                	add	s0,sp,128
 3bc:	16090503          	lb	a0,352(s2)
 3c0:	0100                	add	s0,sp,128
 3c2:	14090503          	lb	a0,320(s2)
 3c6:	0100                	add	s0,sp,128
 3c8:	14090503          	lb	a0,320(s2)
 3cc:	0100                	add	s0,sp,128
 3ce:	10090503          	lb	a0,256(s2)
 3d2:	0100                	add	s0,sp,128
 3d4:	16090503          	lb	a0,352(s2)
 3d8:	0100                	add	s0,sp,128
 3da:	16090503          	lb	a0,352(s2)
 3de:	0100                	add	s0,sp,128
 3e0:	10090503          	lb	a0,256(s2)
 3e4:	0100                	add	s0,sp,128
 3e6:	16090503          	lb	a0,352(s2)
 3ea:	0100                	add	s0,sp,128
 3ec:	16090503          	lb	a0,352(s2)
 3f0:	0100                	add	s0,sp,128
 3f2:	14090503          	lb	a0,320(s2)
 3f6:	0100                	add	s0,sp,128
 3f8:	14090503          	lb	a0,320(s2)
 3fc:	0100                	add	s0,sp,128
 3fe:	10090503          	lb	a0,256(s2)
 402:	0100                	add	s0,sp,128
 404:	16090503          	lb	a0,352(s2)
 408:	0100                	add	s0,sp,128
 40a:	10090503          	lb	a0,256(s2)
 40e:	0100                	add	s0,sp,128
 410:	10090503          	lb	a0,256(s2)
 414:	0100                	add	s0,sp,128
 416:	16090503          	lb	a0,352(s2)
 41a:	0100                	add	s0,sp,128
 41c:	16090503          	lb	a0,352(s2)
 420:	0100                	add	s0,sp,128
 422:	14090503          	lb	a0,320(s2)
 426:	0100                	add	s0,sp,128
 428:	16090503          	lb	a0,352(s2)
 42c:	0100                	add	s0,sp,128
 42e:	16090503          	lb	a0,352(s2)
 432:	0100                	add	s0,sp,128
 434:	10090503          	lb	a0,256(s2)
 438:	0100                	add	s0,sp,128
 43a:	16090503          	lb	a0,352(s2)
 43e:	0100                	add	s0,sp,128
 440:	16090503          	lb	a0,352(s2)
 444:	0100                	add	s0,sp,128
 446:	14090503          	lb	a0,320(s2)
 44a:	0100                	add	s0,sp,128
 44c:	14090503          	lb	a0,320(s2)
 450:	0100                	add	s0,sp,128
 452:	0a090503          	lb	a0,160(s2)
 456:	0100                	add	s0,sp,128
 458:	10090503          	lb	a0,256(s2)
 45c:	0100                	add	s0,sp,128
 45e:	0a090503          	lb	a0,160(s2)
 462:	0100                	add	s0,sp,128
 464:	10090503          	lb	a0,256(s2)
 468:	0100                	add	s0,sp,128
 46a:	10090503          	lb	a0,256(s2)
 46e:	0100                	add	s0,sp,128
 470:	0e090503          	lb	a0,224(s2)
 474:	0100                	add	s0,sp,128
 476:	0e090503          	lb	a0,224(s2)
 47a:	0100                	add	s0,sp,128
 47c:	0a090503          	lb	a0,160(s2)
 480:	0100                	add	s0,sp,128
 482:	10090503          	lb	a0,256(s2)
 486:	0100                	add	s0,sp,128
 488:	0a090503          	lb	a0,160(s2)
 48c:	0100                	add	s0,sp,128
 48e:	0a090503          	lb	a0,160(s2)
 492:	0100                	add	s0,sp,128
 494:	10090503          	lb	a0,256(s2)
 498:	0100                	add	s0,sp,128
 49a:	10090503          	lb	a0,256(s2)
 49e:	0100                	add	s0,sp,128
 4a0:	0e090503          	lb	a0,224(s2)
 4a4:	0100                	add	s0,sp,128
 4a6:	10090503          	lb	a0,256(s2)
 4aa:	0100                	add	s0,sp,128
 4ac:	10090503          	lb	a0,256(s2)
 4b0:	0100                	add	s0,sp,128
 4b2:	0a090503          	lb	a0,160(s2)
 4b6:	0100                	add	s0,sp,128
 4b8:	10090503          	lb	a0,256(s2)
 4bc:	0100                	add	s0,sp,128
 4be:	10090503          	lb	a0,256(s2)
 4c2:	0100                	add	s0,sp,128
 4c4:	0e090503          	lb	a0,224(s2)
 4c8:	0100                	add	s0,sp,128
 4ca:	0e090503          	lb	a0,224(s2)
 4ce:	0100                	add	s0,sp,128
 4d0:	10090503          	lb	a0,256(s2)
 4d4:	0100                	add	s0,sp,128
 4d6:	16090503          	lb	a0,352(s2)
 4da:	0100                	add	s0,sp,128
 4dc:	16090503          	lb	a0,352(s2)
 4e0:	0100                	add	s0,sp,128
 4e2:	10090503          	lb	a0,256(s2)
 4e6:	0100                	add	s0,sp,128
 4e8:	16090503          	lb	a0,352(s2)
 4ec:	0100                	add	s0,sp,128
 4ee:	16090503          	lb	a0,352(s2)
 4f2:	0100                	add	s0,sp,128
 4f4:	14090503          	lb	a0,320(s2)
 4f8:	0100                	add	s0,sp,128
 4fa:	14090503          	lb	a0,320(s2)
 4fe:	0100                	add	s0,sp,128
 500:	10090503          	lb	a0,256(s2)
 504:	0100                	add	s0,sp,128
 506:	16090503          	lb	a0,352(s2)
 50a:	0100                	add	s0,sp,128
 50c:	10090503          	lb	a0,256(s2)
 510:	0100                	add	s0,sp,128
 512:	16090503          	lb	a0,352(s2)
 516:	0100                	add	s0,sp,128
 518:	16090503          	lb	a0,352(s2)
 51c:	0100                	add	s0,sp,128
 51e:	14090503          	lb	a0,320(s2)
 522:	0100                	add	s0,sp,128
 524:	16090503          	lb	a0,352(s2)
 528:	0100                	add	s0,sp,128
 52a:	16090503          	lb	a0,352(s2)
 52e:	0100                	add	s0,sp,128
 530:	10090503          	lb	a0,256(s2)
 534:	0100                	add	s0,sp,128
 536:	16090503          	lb	a0,352(s2)
 53a:	0100                	add	s0,sp,128
 53c:	16090503          	lb	a0,352(s2)
 540:	0100                	add	s0,sp,128
 542:	14090503          	lb	a0,320(s2)
 546:	0100                	add	s0,sp,128
 548:	14090503          	lb	a0,320(s2)
 54c:	0100                	add	s0,sp,128
 54e:	10090503          	lb	a0,256(s2)
 552:	0100                	add	s0,sp,128
 554:	16090503          	lb	a0,352(s2)
 558:	0100                	add	s0,sp,128
 55a:	16090503          	lb	a0,352(s2)
 55e:	0100                	add	s0,sp,128
 560:	10090503          	lb	a0,256(s2)
 564:	0100                	add	s0,sp,128
 566:	16090503          	lb	a0,352(s2)
 56a:	0100                	add	s0,sp,128
 56c:	16090503          	lb	a0,352(s2)
 570:	0100                	add	s0,sp,128
 572:	14090503          	lb	a0,320(s2)
 576:	0100                	add	s0,sp,128
 578:	14090503          	lb	a0,320(s2)
 57c:	0100                	add	s0,sp,128
 57e:	10090503          	lb	a0,256(s2)
 582:	0100                	add	s0,sp,128
 584:	16090503          	lb	a0,352(s2)
 588:	0100                	add	s0,sp,128
 58a:	10090503          	lb	a0,256(s2)
 58e:	0100                	add	s0,sp,128
 590:	10090503          	lb	a0,256(s2)
 594:	0100                	add	s0,sp,128
 596:	16090503          	lb	a0,352(s2)
 59a:	0100                	add	s0,sp,128
 59c:	16090503          	lb	a0,352(s2)
 5a0:	0100                	add	s0,sp,128
 5a2:	14090503          	lb	a0,320(s2)
 5a6:	0100                	add	s0,sp,128
 5a8:	16090503          	lb	a0,352(s2)
 5ac:	0100                	add	s0,sp,128
 5ae:	16090503          	lb	a0,352(s2)
 5b2:	0100                	add	s0,sp,128
 5b4:	10090503          	lb	a0,256(s2)
 5b8:	0100                	add	s0,sp,128
 5ba:	16090503          	lb	a0,352(s2)
 5be:	0100                	add	s0,sp,128
 5c0:	16090503          	lb	a0,352(s2)
 5c4:	0100                	add	s0,sp,128
 5c6:	14090503          	lb	a0,320(s2)
 5ca:	0100                	add	s0,sp,128
 5cc:	14090503          	lb	a0,320(s2)
 5d0:	0100                	add	s0,sp,128
 5d2:	0e090503          	lb	a0,224(s2)
 5d6:	0100                	add	s0,sp,128
 5d8:	14090503          	lb	a0,320(s2)
 5dc:	0100                	add	s0,sp,128
 5de:	0e090503          	lb	a0,224(s2)
 5e2:	0100                	add	s0,sp,128
 5e4:	14090503          	lb	a0,320(s2)
 5e8:	0100                	add	s0,sp,128
 5ea:	14090503          	lb	a0,320(s2)
 5ee:	0100                	add	s0,sp,128
 5f0:	12090503          	lb	a0,288(s2)
 5f4:	0100                	add	s0,sp,128
 5f6:	12090503          	lb	a0,288(s2)
 5fa:	0100                	add	s0,sp,128
 5fc:	0e090503          	lb	a0,224(s2)
 600:	0100                	add	s0,sp,128
 602:	14090503          	lb	a0,320(s2)
 606:	0100                	add	s0,sp,128
 608:	0e090503          	lb	a0,224(s2)
 60c:	0100                	add	s0,sp,128
 60e:	0e090503          	lb	a0,224(s2)
 612:	0100                	add	s0,sp,128
 614:	14090503          	lb	a0,320(s2)
 618:	0100                	add	s0,sp,128
 61a:	14090503          	lb	a0,320(s2)
 61e:	0100                	add	s0,sp,128
 620:	12090503          	lb	a0,288(s2)
 624:	0100                	add	s0,sp,128
 626:	14090503          	lb	a0,320(s2)
 62a:	0100                	add	s0,sp,128
 62c:	14090503          	lb	a0,320(s2)
 630:	0100                	add	s0,sp,128
 632:	0e090503          	lb	a0,224(s2)
 636:	0100                	add	s0,sp,128
 638:	14090503          	lb	a0,320(s2)
 63c:	0100                	add	s0,sp,128
 63e:	14090503          	lb	a0,320(s2)
 642:	0100                	add	s0,sp,128
 644:	12090503          	lb	a0,288(s2)
 648:	0100                	add	s0,sp,128
 64a:	12090503          	lb	a0,288(s2)
 64e:	0100                	add	s0,sp,128
 650:	0e090503          	lb	a0,224(s2)
 654:	0100                	add	s0,sp,128
 656:	14090503          	lb	a0,320(s2)
 65a:	0100                	add	s0,sp,128
 65c:	14090503          	lb	a0,320(s2)
 660:	0100                	add	s0,sp,128
 662:	0e090503          	lb	a0,224(s2)
 666:	0100                	add	s0,sp,128
 668:	14090503          	lb	a0,320(s2)
 66c:	0100                	add	s0,sp,128
 66e:	14090503          	lb	a0,320(s2)
 672:	0100                	add	s0,sp,128
 674:	12090503          	lb	a0,288(s2)
 678:	0100                	add	s0,sp,128
 67a:	12090503          	lb	a0,288(s2)
 67e:	0100                	add	s0,sp,128
 680:	0e090503          	lb	a0,224(s2)
 684:	0100                	add	s0,sp,128
 686:	14090503          	lb	a0,320(s2)
 68a:	0100                	add	s0,sp,128
 68c:	0e090503          	lb	a0,224(s2)
 690:	0100                	add	s0,sp,128
 692:	0e090503          	lb	a0,224(s2)
 696:	0100                	add	s0,sp,128
 698:	14090503          	lb	a0,320(s2)
 69c:	0100                	add	s0,sp,128
 69e:	14090503          	lb	a0,320(s2)
 6a2:	0100                	add	s0,sp,128
 6a4:	12090503          	lb	a0,288(s2)
 6a8:	0100                	add	s0,sp,128
 6aa:	14090503          	lb	a0,320(s2)
 6ae:	0100                	add	s0,sp,128
 6b0:	14090503          	lb	a0,320(s2)
 6b4:	0100                	add	s0,sp,128
 6b6:	0e090503          	lb	a0,224(s2)
 6ba:	0100                	add	s0,sp,128
 6bc:	14090503          	lb	a0,320(s2)
 6c0:	0100                	add	s0,sp,128
 6c2:	14090503          	lb	a0,320(s2)
 6c6:	0100                	add	s0,sp,128
 6c8:	12090503          	lb	a0,288(s2)
 6cc:	0100                	add	s0,sp,128
 6ce:	12090503          	lb	a0,288(s2)
 6d2:	0100                	add	s0,sp,128
 6d4:	0a090503          	lb	a0,160(s2)
 6d8:	0100                	add	s0,sp,128
 6da:	10090503          	lb	a0,256(s2)
 6de:	0100                	add	s0,sp,128
 6e0:	10090503          	lb	a0,256(s2)
 6e4:	0100                	add	s0,sp,128
 6e6:	0a090503          	lb	a0,160(s2)
 6ea:	0100                	add	s0,sp,128
 6ec:	10090503          	lb	a0,256(s2)
 6f0:	0100                	add	s0,sp,128
 6f2:	10090503          	lb	a0,256(s2)
 6f6:	0100                	add	s0,sp,128
 6f8:	0e090503          	lb	a0,224(s2)
 6fc:	0100                	add	s0,sp,128
 6fe:	0e090503          	lb	a0,224(s2)
 702:	0100                	add	s0,sp,128
 704:	0a090503          	lb	a0,160(s2)
 708:	0100                	add	s0,sp,128
 70a:	10090503          	lb	a0,256(s2)
 70e:	0100                	add	s0,sp,128
 710:	0a090503          	lb	a0,160(s2)
 714:	0100                	add	s0,sp,128
 716:	0a090503          	lb	a0,160(s2)
 71a:	0100                	add	s0,sp,128
 71c:	10090503          	lb	a0,256(s2)
 720:	0100                	add	s0,sp,128
 722:	10090503          	lb	a0,256(s2)
 726:	0100                	add	s0,sp,128
 728:	0e090503          	lb	a0,224(s2)
 72c:	0100                	add	s0,sp,128
 72e:	10090503          	lb	a0,256(s2)
 732:	0100                	add	s0,sp,128
 734:	10090503          	lb	a0,256(s2)
 738:	0100                	add	s0,sp,128
 73a:	0a090503          	lb	a0,160(s2)
 73e:	0100                	add	s0,sp,128
 740:	10090503          	lb	a0,256(s2)
 744:	0100                	add	s0,sp,128
 746:	10090503          	lb	a0,256(s2)
 74a:	0100                	add	s0,sp,128
 74c:	0e090503          	lb	a0,224(s2)
 750:	0100                	add	s0,sp,128
 752:	0e090503          	lb	a0,224(s2)
 756:	0100                	add	s0,sp,128
 758:	10090503          	lb	a0,256(s2)
 75c:	0100                	add	s0,sp,128
 75e:	16090503          	lb	a0,352(s2)
 762:	0100                	add	s0,sp,128
 764:	16090503          	lb	a0,352(s2)
 768:	0100                	add	s0,sp,128
 76a:	10090503          	lb	a0,256(s2)
 76e:	0100                	add	s0,sp,128
 770:	16090503          	lb	a0,352(s2)
 774:	0100                	add	s0,sp,128
 776:	16090503          	lb	a0,352(s2)
 77a:	0100                	add	s0,sp,128
 77c:	14090503          	lb	a0,320(s2)
 780:	0100                	add	s0,sp,128
 782:	14090503          	lb	a0,320(s2)
 786:	0100                	add	s0,sp,128
 788:	10090503          	lb	a0,256(s2)
 78c:	0100                	add	s0,sp,128
 78e:	16090503          	lb	a0,352(s2)
 792:	0100                	add	s0,sp,128
 794:	10090503          	lb	a0,256(s2)
 798:	0100                	add	s0,sp,128
 79a:	10090503          	lb	a0,256(s2)
 79e:	0100                	add	s0,sp,128
 7a0:	16090503          	lb	a0,352(s2)
 7a4:	0100                	add	s0,sp,128
 7a6:	16090503          	lb	a0,352(s2)
 7aa:	0100                	add	s0,sp,128
 7ac:	14090503          	lb	a0,320(s2)
 7b0:	0100                	add	s0,sp,128
 7b2:	16090503          	lb	a0,352(s2)
 7b6:	0100                	add	s0,sp,128
 7b8:	16090503          	lb	a0,352(s2)
 7bc:	0100                	add	s0,sp,128
 7be:	10090503          	lb	a0,256(s2)
 7c2:	0100                	add	s0,sp,128
 7c4:	16090503          	lb	a0,352(s2)
 7c8:	0100                	add	s0,sp,128
 7ca:	16090503          	lb	a0,352(s2)
 7ce:	0100                	add	s0,sp,128
 7d0:	14090503          	lb	a0,320(s2)
 7d4:	0100                	add	s0,sp,128
 7d6:	14090503          	lb	a0,320(s2)
 7da:	0100                	add	s0,sp,128
 7dc:	0a090503          	lb	a0,160(s2)
 7e0:	0100                	add	s0,sp,128
 7e2:	10090503          	lb	a0,256(s2)
 7e6:	0100                	add	s0,sp,128
 7e8:	10090503          	lb	a0,256(s2)
 7ec:	0100                	add	s0,sp,128
 7ee:	0a090503          	lb	a0,160(s2)
 7f2:	0100                	add	s0,sp,128
 7f4:	10090503          	lb	a0,256(s2)
 7f8:	0100                	add	s0,sp,128
 7fa:	10090503          	lb	a0,256(s2)
 7fe:	0100                	add	s0,sp,128
 800:	0e090503          	lb	a0,224(s2)
 804:	0100                	add	s0,sp,128
 806:	0e090503          	lb	a0,224(s2)
 80a:	0100                	add	s0,sp,128
 80c:	0a090503          	lb	a0,160(s2)
 810:	0100                	add	s0,sp,128
 812:	14090503          	lb	a0,320(s2)
 816:	0100                	add	s0,sp,128
 818:	14090503          	lb	a0,320(s2)
 81c:	0100                	add	s0,sp,128
 81e:	0a090503          	lb	a0,160(s2)
 822:	0100                	add	s0,sp,128
 824:	10090503          	lb	a0,256(s2)
 828:	0100                	add	s0,sp,128
 82a:	10090503          	lb	a0,256(s2)
 82e:	0100                	add	s0,sp,128
 830:	0a090503          	lb	a0,160(s2)
 834:	0100                	add	s0,sp,128
 836:	10090503          	lb	a0,256(s2)
 83a:	0100                	add	s0,sp,128
 83c:	10090503          	lb	a0,256(s2)
 840:	0100                	add	s0,sp,128
 842:	0e090503          	lb	a0,224(s2)
 846:	0100                	add	s0,sp,128
 848:	0e090503          	lb	a0,224(s2)
 84c:	0100                	add	s0,sp,128
 84e:	0a090503          	lb	a0,160(s2)
 852:	0100                	add	s0,sp,128
 854:	10090503          	lb	a0,256(s2)
 858:	0100                	add	s0,sp,128
 85a:	0a090503          	lb	a0,160(s2)
 85e:	0100                	add	s0,sp,128
 860:	0a090503          	lb	a0,160(s2)
 864:	0100                	add	s0,sp,128
 866:	10090503          	lb	a0,256(s2)
 86a:	0100                	add	s0,sp,128
 86c:	10090503          	lb	a0,256(s2)
 870:	0100                	add	s0,sp,128
 872:	0e090503          	lb	a0,224(s2)
 876:	0100                	add	s0,sp,128
 878:	10090503          	lb	a0,256(s2)
 87c:	0100                	add	s0,sp,128
 87e:	10090503          	lb	a0,256(s2)
 882:	0100                	add	s0,sp,128
 884:	0a090503          	lb	a0,160(s2)
 888:	0100                	add	s0,sp,128
 88a:	10090503          	lb	a0,256(s2)
 88e:	0100                	add	s0,sp,128
 890:	10090503          	lb	a0,256(s2)
 894:	0100                	add	s0,sp,128
 896:	0e090503          	lb	a0,224(s2)
 89a:	0100                	add	s0,sp,128
 89c:	0e090503          	lb	a0,224(s2)
 8a0:	0100                	add	s0,sp,128
 8a2:	10090503          	lb	a0,256(s2)
 8a6:	0100                	add	s0,sp,128
 8a8:	16090503          	lb	a0,352(s2)
 8ac:	0100                	add	s0,sp,128
 8ae:	16090503          	lb	a0,352(s2)
 8b2:	0100                	add	s0,sp,128
 8b4:	10090503          	lb	a0,256(s2)
 8b8:	0100                	add	s0,sp,128
 8ba:	16090503          	lb	a0,352(s2)
 8be:	0100                	add	s0,sp,128
 8c0:	16090503          	lb	a0,352(s2)
 8c4:	0100                	add	s0,sp,128
 8c6:	14090503          	lb	a0,320(s2)
 8ca:	0100                	add	s0,sp,128
 8cc:	14090503          	lb	a0,320(s2)
 8d0:	0100                	add	s0,sp,128
 8d2:	10090503          	lb	a0,256(s2)
 8d6:	0100                	add	s0,sp,128
 8d8:	16090503          	lb	a0,352(s2)
 8dc:	0100                	add	s0,sp,128
 8de:	10090503          	lb	a0,256(s2)
 8e2:	0100                	add	s0,sp,128
 8e4:	10090503          	lb	a0,256(s2)
 8e8:	0100                	add	s0,sp,128
 8ea:	16090503          	lb	a0,352(s2)
 8ee:	0100                	add	s0,sp,128
 8f0:	16090503          	lb	a0,352(s2)
 8f4:	0100                	add	s0,sp,128
 8f6:	14090503          	lb	a0,320(s2)
 8fa:	0100                	add	s0,sp,128
 8fc:	16090503          	lb	a0,352(s2)
 900:	0100                	add	s0,sp,128
 902:	16090503          	lb	a0,352(s2)
 906:	0100                	add	s0,sp,128
 908:	10090503          	lb	a0,256(s2)
 90c:	0100                	add	s0,sp,128
 90e:	16090503          	lb	a0,352(s2)
 912:	0100                	add	s0,sp,128
 914:	16090503          	lb	a0,352(s2)
 918:	0100                	add	s0,sp,128
 91a:	14090503          	lb	a0,320(s2)
 91e:	0100                	add	s0,sp,128
 920:	14090503          	lb	a0,320(s2)
 924:	0100                	add	s0,sp,128
 926:	10090503          	lb	a0,256(s2)
 92a:	0100                	add	s0,sp,128
 92c:	16090503          	lb	a0,352(s2)
 930:	0100                	add	s0,sp,128
 932:	16090503          	lb	a0,352(s2)
 936:	0100                	add	s0,sp,128
 938:	10090503          	lb	a0,256(s2)
 93c:	0100                	add	s0,sp,128
 93e:	16090503          	lb	a0,352(s2)
 942:	0100                	add	s0,sp,128
 944:	16090503          	lb	a0,352(s2)
 948:	0100                	add	s0,sp,128
 94a:	14090503          	lb	a0,320(s2)
 94e:	0100                	add	s0,sp,128
 950:	14090503          	lb	a0,320(s2)
 954:	0100                	add	s0,sp,128
 956:	10090503          	lb	a0,256(s2)
 95a:	0100                	add	s0,sp,128
 95c:	16090503          	lb	a0,352(s2)
 960:	0100                	add	s0,sp,128
 962:	10090503          	lb	a0,256(s2)
 966:	0100                	add	s0,sp,128
 968:	10090503          	lb	a0,256(s2)
 96c:	0100                	add	s0,sp,128
 96e:	16090503          	lb	a0,352(s2)
 972:	0100                	add	s0,sp,128
 974:	16090503          	lb	a0,352(s2)
 978:	0100                	add	s0,sp,128
 97a:	14090503          	lb	a0,320(s2)
 97e:	0100                	add	s0,sp,128
 980:	16090503          	lb	a0,352(s2)
 984:	0100                	add	s0,sp,128
 986:	16090503          	lb	a0,352(s2)
 98a:	0100                	add	s0,sp,128
 98c:	10090503          	lb	a0,256(s2)
 990:	0100                	add	s0,sp,128
 992:	16090503          	lb	a0,352(s2)
 996:	0100                	add	s0,sp,128
 998:	16090503          	lb	a0,352(s2)
 99c:	0100                	add	s0,sp,128
 99e:	14090503          	lb	a0,320(s2)
 9a2:	0100                	add	s0,sp,128
 9a4:	14090503          	lb	a0,320(s2)
 9a8:	0100                	add	s0,sp,128
 9aa:	0e090503          	lb	a0,224(s2)
 9ae:	0100                	add	s0,sp,128
 9b0:	14090503          	lb	a0,320(s2)
 9b4:	0100                	add	s0,sp,128
 9b6:	14090503          	lb	a0,320(s2)
 9ba:	0100                	add	s0,sp,128
 9bc:	0e090503          	lb	a0,224(s2)
 9c0:	0100                	add	s0,sp,128
 9c2:	14090503          	lb	a0,320(s2)
 9c6:	0100                	add	s0,sp,128
 9c8:	14090503          	lb	a0,320(s2)
 9cc:	0100                	add	s0,sp,128
 9ce:	12090503          	lb	a0,288(s2)
 9d2:	0100                	add	s0,sp,128
 9d4:	12090503          	lb	a0,288(s2)
 9d8:	0100                	add	s0,sp,128
 9da:	0e090503          	lb	a0,224(s2)
 9de:	0100                	add	s0,sp,128
 9e0:	14090503          	lb	a0,320(s2)
 9e4:	0100                	add	s0,sp,128
 9e6:	0e090503          	lb	a0,224(s2)
 9ea:	0100                	add	s0,sp,128
 9ec:	0e090503          	lb	a0,224(s2)
 9f0:	0100                	add	s0,sp,128
 9f2:	14090503          	lb	a0,320(s2)
 9f6:	0100                	add	s0,sp,128
 9f8:	14090503          	lb	a0,320(s2)
 9fc:	0100                	add	s0,sp,128
 9fe:	12090503          	lb	a0,288(s2)
 a02:	0100                	add	s0,sp,128
 a04:	14090503          	lb	a0,320(s2)
 a08:	0100                	add	s0,sp,128
 a0a:	14090503          	lb	a0,320(s2)
 a0e:	0100                	add	s0,sp,128
 a10:	0e090503          	lb	a0,224(s2)
 a14:	0100                	add	s0,sp,128
 a16:	14090503          	lb	a0,320(s2)
 a1a:	0100                	add	s0,sp,128
 a1c:	14090503          	lb	a0,320(s2)
 a20:	0100                	add	s0,sp,128
 a22:	12090503          	lb	a0,288(s2)
 a26:	0100                	add	s0,sp,128
 a28:	12090503          	lb	a0,288(s2)
 a2c:	0100                	add	s0,sp,128
 a2e:	0e090503          	lb	a0,224(s2)
 a32:	0100                	add	s0,sp,128
 a34:	14090503          	lb	a0,320(s2)
 a38:	0100                	add	s0,sp,128
 a3a:	14090503          	lb	a0,320(s2)
 a3e:	0100                	add	s0,sp,128
 a40:	0e090503          	lb	a0,224(s2)
 a44:	0100                	add	s0,sp,128
 a46:	14090503          	lb	a0,320(s2)
 a4a:	0100                	add	s0,sp,128
 a4c:	14090503          	lb	a0,320(s2)
 a50:	0100                	add	s0,sp,128
 a52:	12090503          	lb	a0,288(s2)
 a56:	0100                	add	s0,sp,128
 a58:	12090503          	lb	a0,288(s2)
 a5c:	0100                	add	s0,sp,128
 a5e:	0e090503          	lb	a0,224(s2)
 a62:	0100                	add	s0,sp,128
 a64:	14090503          	lb	a0,320(s2)
 a68:	0100                	add	s0,sp,128
 a6a:	0e090503          	lb	a0,224(s2)
 a6e:	0100                	add	s0,sp,128
 a70:	0e090503          	lb	a0,224(s2)
 a74:	0100                	add	s0,sp,128
 a76:	14090503          	lb	a0,320(s2)
 a7a:	0100                	add	s0,sp,128
 a7c:	14090503          	lb	a0,320(s2)
 a80:	0100                	add	s0,sp,128
 a82:	12090503          	lb	a0,288(s2)
 a86:	0100                	add	s0,sp,128
 a88:	14090503          	lb	a0,320(s2)
 a8c:	0100                	add	s0,sp,128
 a8e:	14090503          	lb	a0,320(s2)
 a92:	0100                	add	s0,sp,128
 a94:	0e090503          	lb	a0,224(s2)
 a98:	0100                	add	s0,sp,128
 a9a:	14090503          	lb	a0,320(s2)
 a9e:	0100                	add	s0,sp,128
 aa0:	14090503          	lb	a0,320(s2)
 aa4:	0100                	add	s0,sp,128
 aa6:	12090503          	lb	a0,288(s2)
 aaa:	0100                	add	s0,sp,128
 aac:	12090503          	lb	a0,288(s2)
 ab0:	0100                	add	s0,sp,128
 ab2:	10090503          	lb	a0,256(s2)
 ab6:	0100                	add	s0,sp,128
 ab8:	0a090503          	lb	a0,160(s2)
 abc:	0100                	add	s0,sp,128
 abe:	0a090503          	lb	a0,160(s2)
 ac2:	0100                	add	s0,sp,128
 ac4:	10090503          	lb	a0,256(s2)
 ac8:	0100                	add	s0,sp,128
 aca:	10090503          	lb	a0,256(s2)
 ace:	0100                	add	s0,sp,128
 ad0:	0e090503          	lb	a0,224(s2)
 ad4:	0100                	add	s0,sp,128
 ad6:	10090503          	lb	a0,256(s2)
 ada:	0100                	add	s0,sp,128
 adc:	10090503          	lb	a0,256(s2)
 ae0:	0100                	add	s0,sp,128
 ae2:	0a090503          	lb	a0,160(s2)
 ae6:	0100                	add	s0,sp,128
 ae8:	10090503          	lb	a0,256(s2)
 aec:	0100                	add	s0,sp,128
 aee:	10090503          	lb	a0,256(s2)
 af2:	0100                	add	s0,sp,128
 af4:	0e090503          	lb	a0,224(s2)
 af8:	0100                	add	s0,sp,128
 afa:	0e090503          	lb	a0,224(s2)
 afe:	0100                	add	s0,sp,128
 b00:	0a090503          	lb	a0,160(s2)
 b04:	0100                	add	s0,sp,128
 b06:	10090503          	lb	a0,256(s2)
 b0a:	0100                	add	s0,sp,128
 b0c:	10090503          	lb	a0,256(s2)
 b10:	0100                	add	s0,sp,128
 b12:	0a090503          	lb	a0,160(s2)
 b16:	0100                	add	s0,sp,128
 b18:	10090503          	lb	a0,256(s2)
 b1c:	0100                	add	s0,sp,128
 b1e:	10090503          	lb	a0,256(s2)
 b22:	0100                	add	s0,sp,128
 b24:	0e090503          	lb	a0,224(s2)
 b28:	0100                	add	s0,sp,128
 b2a:	0e090503          	lb	a0,224(s2)
 b2e:	0100                	add	s0,sp,128
 b30:	0a090503          	lb	a0,160(s2)
 b34:	0100                	add	s0,sp,128
 b36:	10090503          	lb	a0,256(s2)
 b3a:	0100                	add	s0,sp,128
 b3c:	0a090503          	lb	a0,160(s2)
 b40:	0100                	add	s0,sp,128
 b42:	0a090503          	lb	a0,160(s2)
 b46:	0100                	add	s0,sp,128
 b48:	10090503          	lb	a0,256(s2)
 b4c:	0100                	add	s0,sp,128
 b4e:	10090503          	lb	a0,256(s2)
 b52:	0100                	add	s0,sp,128
 b54:	0e090503          	lb	a0,224(s2)
 b58:	0100                	add	s0,sp,128
 b5a:	10090503          	lb	a0,256(s2)
 b5e:	0100                	add	s0,sp,128
 b60:	10090503          	lb	a0,256(s2)
 b64:	0100                	add	s0,sp,128
 b66:	0a090503          	lb	a0,160(s2)
 b6a:	0100                	add	s0,sp,128
 b6c:	10090503          	lb	a0,256(s2)
 b70:	0100                	add	s0,sp,128
 b72:	10090503          	lb	a0,256(s2)
 b76:	0100                	add	s0,sp,128
 b78:	0e090503          	lb	a0,224(s2)
 b7c:	0100                	add	s0,sp,128
 b7e:	0e090503          	lb	a0,224(s2)
 b82:	0100                	add	s0,sp,128
 b84:	10090503          	lb	a0,256(s2)
 b88:	0100                	add	s0,sp,128
 b8a:	16090503          	lb	a0,352(s2)
 b8e:	0100                	add	s0,sp,128
 b90:	16090503          	lb	a0,352(s2)
 b94:	0100                	add	s0,sp,128
 b96:	10090503          	lb	a0,256(s2)
 b9a:	0100                	add	s0,sp,128
 b9c:	16090503          	lb	a0,352(s2)
 ba0:	0100                	add	s0,sp,128
 ba2:	16090503          	lb	a0,352(s2)
 ba6:	0100                	add	s0,sp,128
 ba8:	14090503          	lb	a0,320(s2)
 bac:	0100                	add	s0,sp,128
 bae:	14090503          	lb	a0,320(s2)
 bb2:	0100                	add	s0,sp,128
 bb4:	10090503          	lb	a0,256(s2)
 bb8:	0100                	add	s0,sp,128
 bba:	16090503          	lb	a0,352(s2)
 bbe:	0100                	add	s0,sp,128
 bc0:	10090503          	lb	a0,256(s2)
 bc4:	0100                	add	s0,sp,128
 bc6:	10090503          	lb	a0,256(s2)
 bca:	0100                	add	s0,sp,128
 bcc:	16090503          	lb	a0,352(s2)
 bd0:	0100                	add	s0,sp,128
 bd2:	16090503          	lb	a0,352(s2)
 bd6:	0100                	add	s0,sp,128
 bd8:	14090503          	lb	a0,320(s2)
 bdc:	0100                	add	s0,sp,128
 bde:	16090503          	lb	a0,352(s2)
 be2:	0100                	add	s0,sp,128
 be4:	16090503          	lb	a0,352(s2)
 be8:	0100                	add	s0,sp,128
 bea:	10090503          	lb	a0,256(s2)
 bee:	0100                	add	s0,sp,128
 bf0:	16090503          	lb	a0,352(s2)
 bf4:	0100                	add	s0,sp,128
 bf6:	16090503          	lb	a0,352(s2)
 bfa:	0100                	add	s0,sp,128
 bfc:	14090503          	lb	a0,320(s2)
 c00:	0100                	add	s0,sp,128
 c02:	14090503          	lb	a0,320(s2)
 c06:	0100                	add	s0,sp,128
 c08:	10090503          	lb	a0,256(s2)
 c0c:	0100                	add	s0,sp,128
 c0e:	16090503          	lb	a0,352(s2)
 c12:	0100                	add	s0,sp,128
 c14:	16090503          	lb	a0,352(s2)
 c18:	0100                	add	s0,sp,128
 c1a:	10090503          	lb	a0,256(s2)
 c1e:	0100                	add	s0,sp,128
 c20:	16090503          	lb	a0,352(s2)
 c24:	0100                	add	s0,sp,128
 c26:	16090503          	lb	a0,352(s2)
 c2a:	0100                	add	s0,sp,128
 c2c:	14090503          	lb	a0,320(s2)
 c30:	0100                	add	s0,sp,128
 c32:	14090503          	lb	a0,320(s2)
 c36:	0100                	add	s0,sp,128
 c38:	10090503          	lb	a0,256(s2)
 c3c:	0100                	add	s0,sp,128
 c3e:	16090503          	lb	a0,352(s2)
 c42:	0100                	add	s0,sp,128
 c44:	10090503          	lb	a0,256(s2)
 c48:	0100                	add	s0,sp,128
 c4a:	10090503          	lb	a0,256(s2)
 c4e:	0100                	add	s0,sp,128
 c50:	16090503          	lb	a0,352(s2)
 c54:	0100                	add	s0,sp,128
 c56:	16090503          	lb	a0,352(s2)
 c5a:	0100                	add	s0,sp,128
 c5c:	14090503          	lb	a0,320(s2)
 c60:	0100                	add	s0,sp,128
 c62:	16090503          	lb	a0,352(s2)
 c66:	0100                	add	s0,sp,128
 c68:	16090503          	lb	a0,352(s2)
 c6c:	0100                	add	s0,sp,128
 c6e:	10090503          	lb	a0,256(s2)
 c72:	0100                	add	s0,sp,128
 c74:	16090503          	lb	a0,352(s2)
 c78:	0100                	add	s0,sp,128
 c7a:	16090503          	lb	a0,352(s2)
 c7e:	0100                	add	s0,sp,128
 c80:	14090503          	lb	a0,320(s2)
 c84:	0100                	add	s0,sp,128
 c86:	14090503          	lb	a0,320(s2)
 c8a:	0100                	add	s0,sp,128
 c8c:	0e090503          	lb	a0,224(s2)
 c90:	0100                	add	s0,sp,128
 c92:	14090503          	lb	a0,320(s2)
 c96:	0100                	add	s0,sp,128
 c98:	14090503          	lb	a0,320(s2)
 c9c:	0100                	add	s0,sp,128
 c9e:	0e090503          	lb	a0,224(s2)
 ca2:	0100                	add	s0,sp,128
 ca4:	14090503          	lb	a0,320(s2)
 ca8:	0100                	add	s0,sp,128
 caa:	14090503          	lb	a0,320(s2)
 cae:	0100                	add	s0,sp,128
 cb0:	12090503          	lb	a0,288(s2)
 cb4:	0100                	add	s0,sp,128
 cb6:	12090503          	lb	a0,288(s2)
 cba:	0100                	add	s0,sp,128
 cbc:	0e090503          	lb	a0,224(s2)
 cc0:	0100                	add	s0,sp,128
 cc2:	14090503          	lb	a0,320(s2)
 cc6:	0100                	add	s0,sp,128
 cc8:	0e090503          	lb	a0,224(s2)
 ccc:	0100                	add	s0,sp,128
 cce:	0e090503          	lb	a0,224(s2)
 cd2:	0100                	add	s0,sp,128
 cd4:	14090503          	lb	a0,320(s2)
 cd8:	0100                	add	s0,sp,128
 cda:	1a090103          	lb	sp,416(s2)
 cde:	0100                	add	s0,sp,128
 ce0:	20090503          	lb	a0,512(s2)
 ce4:	0100                	add	s0,sp,128
 ce6:	12090503          	lb	a0,288(s2)
 cea:	0100                	add	s0,sp,128
 cec:	14090503          	lb	a0,320(s2)
 cf0:	0100                	add	s0,sp,128
 cf2:	14090503          	lb	a0,320(s2)
 cf6:	0100                	add	s0,sp,128
 cf8:	0e090503          	lb	a0,224(s2)
 cfc:	0100                	add	s0,sp,128
 cfe:	14090503          	lb	a0,320(s2)
 d02:	0100                	add	s0,sp,128
 d04:	14090503          	lb	a0,320(s2)
 d08:	0100                	add	s0,sp,128
 d0a:	12090503          	lb	a0,288(s2)
 d0e:	0100                	add	s0,sp,128
 d10:	12090503          	lb	a0,288(s2)
 d14:	0100                	add	s0,sp,128
 d16:	10090503          	lb	a0,256(s2)
 d1a:	0100                	add	s0,sp,128
 d1c:	16090503          	lb	a0,352(s2)
 d20:	0100                	add	s0,sp,128
 d22:	16090503          	lb	a0,352(s2)
 d26:	0100                	add	s0,sp,128
 d28:	10090503          	lb	a0,256(s2)
 d2c:	0100                	add	s0,sp,128
 d2e:	16090503          	lb	a0,352(s2)
 d32:	0100                	add	s0,sp,128
 d34:	16090503          	lb	a0,352(s2)
 d38:	0100                	add	s0,sp,128
 d3a:	14090503          	lb	a0,320(s2)
 d3e:	0100                	add	s0,sp,128
 d40:	14090503          	lb	a0,320(s2)
 d44:	0100                	add	s0,sp,128
 d46:	10090503          	lb	a0,256(s2)
 d4a:	0100                	add	s0,sp,128
 d4c:	16090503          	lb	a0,352(s2)
 d50:	0100                	add	s0,sp,128
 d52:	10090503          	lb	a0,256(s2)
 d56:	0100                	add	s0,sp,128
 d58:	10090503          	lb	a0,256(s2)
 d5c:	0100                	add	s0,sp,128
 d5e:	16090503          	lb	a0,352(s2)
 d62:	0100                	add	s0,sp,128
 d64:	16090503          	lb	a0,352(s2)
 d68:	0100                	add	s0,sp,128
 d6a:	14090503          	lb	a0,320(s2)
 d6e:	0100                	add	s0,sp,128
 d70:	16090503          	lb	a0,352(s2)
 d74:	0100                	add	s0,sp,128
 d76:	16090503          	lb	a0,352(s2)
 d7a:	0100                	add	s0,sp,128
 d7c:	10090503          	lb	a0,256(s2)
 d80:	0100                	add	s0,sp,128
 d82:	16090503          	lb	a0,352(s2)
 d86:	0100                	add	s0,sp,128
 d88:	16090503          	lb	a0,352(s2)
 d8c:	0100                	add	s0,sp,128
 d8e:	14090503          	lb	a0,320(s2)
 d92:	0100                	add	s0,sp,128
 d94:	14090503          	lb	a0,320(s2)
 d98:	0100                	add	s0,sp,128
 d9a:	10090503          	lb	a0,256(s2)
 d9e:	0100                	add	s0,sp,128
 da0:	16090503          	lb	a0,352(s2)
 da4:	0100                	add	s0,sp,128
 da6:	16090503          	lb	a0,352(s2)
 daa:	0100                	add	s0,sp,128
 dac:	10090503          	lb	a0,256(s2)
 db0:	0100                	add	s0,sp,128
 db2:	16090503          	lb	a0,352(s2)
 db6:	0100                	add	s0,sp,128
 db8:	16090503          	lb	a0,352(s2)
 dbc:	0100                	add	s0,sp,128
 dbe:	14090503          	lb	a0,320(s2)
 dc2:	0100                	add	s0,sp,128
 dc4:	14090503          	lb	a0,320(s2)
 dc8:	0100                	add	s0,sp,128
 dca:	10090503          	lb	a0,256(s2)
 dce:	0100                	add	s0,sp,128
 dd0:	16090503          	lb	a0,352(s2)
 dd4:	0100                	add	s0,sp,128
 dd6:	10090503          	lb	a0,256(s2)
 dda:	0100                	add	s0,sp,128
 ddc:	10090503          	lb	a0,256(s2)
 de0:	0100                	add	s0,sp,128
 de2:	16090503          	lb	a0,352(s2)
 de6:	0100                	add	s0,sp,128
 de8:	16090503          	lb	a0,352(s2)
 dec:	0100                	add	s0,sp,128
 dee:	14090503          	lb	a0,320(s2)
 df2:	0100                	add	s0,sp,128
 df4:	16090503          	lb	a0,352(s2)
 df8:	0100                	add	s0,sp,128
 dfa:	16090503          	lb	a0,352(s2)
 dfe:	0100                	add	s0,sp,128
 e00:	10090503          	lb	a0,256(s2)
 e04:	0100                	add	s0,sp,128
 e06:	16090503          	lb	a0,352(s2)
 e0a:	0100                	add	s0,sp,128
 e0c:	16090403          	lb	s0,352(s2)
 e10:	0100                	add	s0,sp,128
 e12:	20090103          	lb	sp,512(s2)
 e16:	0100                	add	s0,sp,128
 e18:	0c09                	add	s8,s8,2 # 200002 <offset+0x1fff3a>
 e1a:	0000                	unimp
 e1c:	0101                	add	sp,sp,0

Disassembly of section .debug_line_str:

00000000 <.debug_line_str>:
   0:	6d6f682f          	.4byte	0x6d6f682f
   4:	2f65                	jal	7bc <offset+0x6f4>
   6:	6f66                	.2byte	0x6f66
   8:	6372                	.2byte	0x6372
   a:	2f65                	jal	7c2 <offset+0x6fa>
   c:	6544                	.2byte	0x6544
   e:	6f746b73          	.4byte	0x6f746b73
  12:	2f70                	.2byte	0x2f70
  14:	6b726f77          	.4byte	0x6b726f77
  18:	6d6f632f          	.4byte	0x6d6f632f
  1c:	6c70                	.2byte	0x6c70
  1e:	6169                	add	sp,sp,208
  20:	636e                	.2byte	0x636e
  22:	5f65                	li	t5,-7
  24:	6574                	.2byte	0x6574
  26:	6e697473          	.4byte	0x6e697473
  2a:	756f2f67          	.4byte	0x756f2f67
  2e:	5f72                	lw	t5,60(sp)
  30:	6972                	.2byte	0x6972
  32:	2f766373          	.4byte	0x2f766373
  36:	6b726f77          	.4byte	0x6b726f77
  3a:	7369722f          	.4byte	0x7369722f
  3e:	5f666f63          	bltu	a2,s6,63c <offset+0x574>
  42:	6b726f77          	.4byte	0x6b726f77
  46:	732f432f          	.4byte	0x732f432f
  4a:	6372                	.2byte	0x6372
  4c:	6461632f          	.4byte	0x6461632f
  50:	2d64                	.2byte	0x2d64
  52:	3130                	.2byte	0x3130
  54:	532e                	lw	t1,232(sp)
  56:	7475642f          	.4byte	0x7475642f
  5a:	2f00                	.2byte	0x2f00
  5c:	6f68                	.2byte	0x6f68
  5e:	656d                	lui	a0,0x1b
  60:	726f662f          	.4byte	0x726f662f
  64:	442f6563          	bltu	t5,sp,4ae <offset+0x3e6>
  68:	7365                	lui	t1,0xffff9
  6a:	706f746b          	.4byte	0x706f746b
  6e:	726f772f          	.4byte	0x726f772f
  72:	6f632f6b          	.4byte	0x6f632f6b
  76:	706d                	c.lui	zero,0xffffb
  78:	696c                	.2byte	0x696c
  7a:	6e61                	lui	t3,0x18
  7c:	745f6563          	bltu	t5,t0,7c6 <offset+0x6fe>
  80:	7365                	lui	t1,0xffff9
  82:	6974                	.2byte	0x6974
  84:	676e                	.2byte	0x676e
  86:	72756f2f          	.4byte	0x72756f2f
  8a:	725f 7369 7663      	.byte	0x5f, 0x72, 0x69, 0x73, 0x63, 0x76
  90:	7369722f          	.4byte	0x7369722f
  94:	612d7663          	bgeu	s10,s2,6a0 <offset+0x5d8>
  98:	6372                	.2byte	0x6372
  9a:	2d68                	.2byte	0x2d68
  9c:	6574                	.2byte	0x6574
  9e:	722f7473          	.4byte	0x722f7473
  a2:	7369                	lui	t1,0xffffa
  a4:	742d7663          	bgeu	s10,sp,7f0 <offset+0x728>
  a8:	7365                	lui	t1,0xffff9
  aa:	2d74                	.2byte	0x2d74
  ac:	74697573          	.4byte	0x74697573
  b0:	2f65                	jal	868 <offset+0x7a0>
  b2:	7672                	.2byte	0x7672
  b4:	5f693233          	.4byte	0x5f693233
  b8:	2f6d                	jal	872 <offset+0x7aa>
  ba:	72732f43          	.4byte	0x72732f43
  be:	61630063          	beq	t1,s6,6be <offset+0x5f6>
  c2:	6464                	.2byte	0x6464
  c4:	302d                	jal	fffff8ee <imm12+0xfffffe1e>
  c6:	2e31                	jal	3e2 <offset+0x31a>
  c8:	53 00             	Address 0xc8 is out of bounds.


Disassembly of section .debug_info:

00000000 <.debug_info>:
   0:	0021                	c.nop	8
   2:	0000                	unimp
   4:	0005                	c.nop	1
   6:	0401                	add	s0,s0,0 # 1000000 <offset+0xffff38>
   8:	0000                	unimp
   a:	0000                	unimp
   c:	0001                	nop
   e:	0000                	unimp
  10:	0000                	unimp
  12:	0000                	unimp
  14:	b680                	.2byte	0xb680
  16:	0052                	c.slli	zero,0x14
  18:	0000                	unimp
  1a:	6f00                	.2byte	0x6f00
  1c:	0000                	unimp
  1e:	ca00                	sw	s0,16(a2)
  20:	0000                	unimp
  22:	0100                	add	s0,sp,128
  24:	80              	Address 0x24 is out of bounds.


Disassembly of section .debug_abbrev:

00000000 <.debug_abbrev>:
   0:	1101                	add	sp,sp,-32
   2:	1000                	add	s0,sp,32
   4:	12011117          	auipc	sp,0x12011
   8:	1b0e030f          	.4byte	0x1b0e030f
   c:	250e                	.2byte	0x250e
   e:	130e                	sll	t1,t1,0x23
  10:	0005                	c.nop	1
	...

Disassembly of section .debug_aranges:

00000000 <.debug_aranges>:
   0:	001c                	.2byte	0x1c
   2:	0000                	unimp
   4:	0002                	c.slli64	zero
   6:	0000                	unimp
   8:	0000                	unimp
   a:	0004                	.2byte	0x4
   c:	0000                	unimp
   e:	0000                	unimp
  10:	0000                	unimp
  12:	8000                	.2byte	0x8000
  14:	28a4                	.2byte	0x28a4
	...

Disassembly of section .debug_str:

00000000 <.debug_str>:
   0:	6d6f682f          	.4byte	0x6d6f682f
   4:	2f65                	jal	7bc <offset+0x6f4>
   6:	6f66                	.2byte	0x6f66
   8:	6372                	.2byte	0x6372
   a:	2f65                	jal	7c2 <offset+0x6fa>
   c:	6544                	.2byte	0x6544
   e:	6f746b73          	.4byte	0x6f746b73
  12:	2f70                	.2byte	0x2f70
  14:	6b726f77          	.4byte	0x6b726f77
  18:	6d6f632f          	.4byte	0x6d6f632f
  1c:	6c70                	.2byte	0x6c70
  1e:	6169                	add	sp,sp,208
  20:	636e                	.2byte	0x636e
  22:	5f65                	li	t5,-7
  24:	6574                	.2byte	0x6574
  26:	6e697473          	.4byte	0x6e697473
  2a:	756f2f67          	.4byte	0x756f2f67
  2e:	5f72                	lw	t5,60(sp)
  30:	6972                	.2byte	0x6972
  32:	2f766373          	.4byte	0x2f766373
  36:	6972                	.2byte	0x6972
  38:	2d766373          	.4byte	0x2d766373
  3c:	7261                	lui	tp,0xffff8
  3e:	742d6863          	bltu	s10,sp,78e <offset+0x6c6>
  42:	7365                	lui	t1,0xffff9
  44:	2f74                	.2byte	0x2f74
  46:	6972                	.2byte	0x6972
  48:	2d766373          	.4byte	0x2d766373
  4c:	6574                	.2byte	0x6574
  4e:	732d7473          	.4byte	0x732d7473
  52:	6975                	lui	s2,0x1d
  54:	6574                	.2byte	0x6574
  56:	3376722f          	.4byte	0x3376722f
  5a:	6932                	.2byte	0x6932
  5c:	6d5f 432f 732f      	.byte	0x5f, 0x6d, 0x2f, 0x43, 0x2f, 0x73
  62:	6372                	.2byte	0x6372
  64:	6461632f          	.4byte	0x6461632f
  68:	2d64                	.2byte	0x2d64
  6a:	3130                	.2byte	0x3130
  6c:	532e                	lw	t1,232(sp)
  6e:	2f00                	.2byte	0x2f00
  70:	6f68                	.2byte	0x6f68
  72:	656d                	lui	a0,0x1b
  74:	726f662f          	.4byte	0x726f662f
  78:	442f6563          	bltu	t5,sp,4c2 <offset+0x3fa>
  7c:	7365                	lui	t1,0xffff9
  7e:	706f746b          	.4byte	0x706f746b
  82:	726f772f          	.4byte	0x726f772f
  86:	6f632f6b          	.4byte	0x6f632f6b
  8a:	706d                	c.lui	zero,0xffffb
  8c:	696c                	.2byte	0x696c
  8e:	6e61                	lui	t3,0x18
  90:	745f6563          	bltu	t5,t0,7da <offset+0x712>
  94:	7365                	lui	t1,0xffff9
  96:	6974                	.2byte	0x6974
  98:	676e                	.2byte	0x676e
  9a:	72756f2f          	.4byte	0x72756f2f
  9e:	725f 7369 7663      	.byte	0x5f, 0x72, 0x69, 0x73, 0x63, 0x76
  a4:	726f772f          	.4byte	0x726f772f
  a8:	69722f6b          	.4byte	0x69722f6b
  ac:	666f6373          	.4byte	0x666f6373
  b0:	775f 726f 2f6b      	.byte	0x5f, 0x77, 0x6f, 0x72, 0x6b, 0x2f
  b6:	72732f43          	.4byte	0x72732f43
  ba:	61632f63          	.4byte	0x61632f63
  be:	6464                	.2byte	0x6464
  c0:	302d                	jal	fffff8ea <imm12+0xfffffe1a>
  c2:	2e31                	jal	3de <offset+0x316>
  c4:	75642f53          	.4byte	0x75642f53
  c8:	0074                	add	a3,sp,12
  ca:	20554e47          	.4byte	0x20554e47
  ce:	5341                	li	t1,-16
  d0:	3220                	.2byte	0x3220
  d2:	342e                	.2byte	0x342e
  d4:	2e30                	.2byte	0x2e30
  d6:	0030                	add	a2,sp,8
