
dut_riscv.elf:     file format elf32-littleriscv


Disassembly of section .text.init:

80000000 <rvtest_entry_point>:
80000000:	feedc0b7          	lui	ra,0xfeedc
80000004:	ead08093          	add	ra,ra,-339 # feedbead <immx+0x441ce3dd>
80000008:	ff76e137          	lui	sp,0xff76e
8000000c:	f5610113          	add	sp,sp,-170 # ff76df56 <immx+0x44a60486>
80000010:	7fbb71b7          	lui	gp,0x7fbb7
80000014:	fab18193          	add	gp,gp,-85 # 7fbb6fab <absimm+0x3a8c4a7c>
80000018:	bfddb237          	lui	tp,0xbfddb
8000001c:	7d520213          	add	tp,tp,2005 # bfddb7d5 <immx+0x50cdd05>
80000020:	00000297          	auipc	t0,0x0
80000024:	08828293          	add	t0,t0,136 # 800000a8 <rvtest_code_begin>
80000028:	00000013          	nop
8000002c:	00000013          	nop
80000030:	00000013          	nop
80000034:	00000013          	nop
80000038:	00000013          	nop
8000003c:	00000013          	nop
80000040:	00002317          	auipc	t1,0x2
80000044:	fc030313          	add	t1,t1,-64 # 80002000 <rvtest_data_begin>
80000048:	00000013          	nop
8000004c:	00000013          	nop
80000050:	00000013          	nop
80000054:	00000013          	nop
80000058:	00000013          	nop
8000005c:	00000013          	nop
80000060:	b7fbb3b7          	lui	t2,0xb7fbb
80000064:	6fa38393          	add	t2,t2,1786 # b7fbb6fa <_end+0x37fb847a>
80000068:	5bfde437          	lui	s0,0x5bfde
8000006c:	b7d40413          	add	s0,s0,-1155 # 5bfddb7d <absimm+0x16ceb64e>
80000070:	adfef4b7          	lui	s1,0xadfef
80000074:	dbe48493          	add	s1,s1,-578 # adfeedbe <_end+0x2dfebb3e>
80000078:	56ff7537          	lui	a0,0x56ff7
8000007c:	6df50513          	add	a0,a0,1759 # 56ff76df <absimm+0x11d051b0>
80000080:	ab7fc5b7          	lui	a1,0xab7fc
80000084:	b6f58593          	add	a1,a1,-1169 # ab7fbb6f <_end+0x2b7f88ef>
80000088:	d5bfe637          	lui	a2,0xd5bfe
8000008c:	db760613          	add	a2,a2,-585 # d5bfddb7 <immx+0x1aef02e7>
80000090:	eadff6b7          	lui	a3,0xeadff
80000094:	edb68693          	add	a3,a3,-293 # eadfeedb <immx+0x300f140b>
80000098:	f56ff737          	lui	a4,0xf56ff
8000009c:	76d70713          	add	a4,a4,1901 # f56ff76d <immx+0x3a9f1c9d>
800000a0:	fab807b7          	lui	a5,0xfab80
800000a4:	bb678793          	add	a5,a5,-1098 # fab7fbb6 <immx+0x3fe720e6>

800000a8 <rvtest_code_begin>:
800000a8:	00000013          	nop
800000ac:	00000013          	nop
800000b0:	00000013          	nop
800000b4:	00000013          	nop
800000b8:	00000013          	nop
800000bc:	00000013          	nop
800000c0:	00003217          	auipc	tp,0x3
800000c4:	05420213          	add	tp,tp,84 # 80003114 <signature_x4_0>
800000c8:	00000013          	nop
800000cc:	00000013          	nop
800000d0:	00000013          	nop
800000d4:	00000013          	nop
800000d8:	00000013          	nop
800000dc:	00000013          	nop

800000e0 <inst_0>:
800000e0:	ff700f93          	li	t6,-9
800000e4:	409fdc93          	sra	s9,t6,0x9
800000e8:	01922023          	sw	s9,0(tp) # 0 <SMODE_SIG-0x1>

800000ec <inst_1>:
800000ec:	00500513          	li	a0,5
800000f0:	40155513          	sra	a0,a0,0x1
800000f4:	00a22223          	sw	a0,4(tp) # 4 <MMODE_SIG+0x1>

800000f8 <inst_2>:
800000f8:	ff000437          	lui	s0,0xff000
800000fc:	fff40413          	add	s0,s0,-1 # feffffff <immx+0x442f252f>
80000100:	40045e13          	sra	t3,s0,0x0
80000104:	01c22423          	sw	t3,8(tp) # 8 <MMODE_SIG+0x5>

80000108 <inst_3>:
80000108:	001008b7          	lui	a7,0x100
8000010c:	4008d293          	sra	t0,a7,0x0
80000110:	00522623          	sw	t0,12(tp) # c <MMODE_SIG+0x9>

80000114 <inst_4>:
80000114:	fffe0bb7          	lui	s7,0xfffe0
80000118:	fffb8b93          	add	s7,s7,-1 # fffdffff <immx+0x452d252f>
8000011c:	41fbdd93          	sra	s11,s7,0x1f
80000120:	01b22823          	sw	s11,16(tp) # 10 <MMODE_SIG+0xd>

80000124 <inst_5>:
80000124:	00100693          	li	a3,1
80000128:	41f6da13          	sra	s4,a3,0x1f
8000012c:	01422a23          	sw	s4,20(tp) # 14 <MMODE_SIG+0x11>

80000130 <inst_6>:
80000130:	00400b13          	li	s6,4
80000134:	404b5593          	sra	a1,s6,0x4
80000138:	00b22c23          	sw	a1,24(tp) # 18 <MMODE_SIG+0x15>

8000013c <inst_7>:
8000013c:	800003b7          	lui	t2,0x80000
80000140:	4003df13          	sra	t5,t2,0x0
80000144:	01e22e23          	sw	t5,28(tp) # 1c <MMODE_SIG+0x19>

80000148 <inst_8>:
80000148:	00000913          	li	s2,0
8000014c:	40e95713          	sra	a4,s2,0xe
80000150:	02e22023          	sw	a4,32(tp) # 20 <MMODE_SIG+0x1d>

80000154 <inst_9>:
80000154:	800001b7          	lui	gp,0x80000
80000158:	fff18193          	add	gp,gp,-1 # 7fffffff <absimm+0x3ad0dad0>
8000015c:	41f1d993          	sra	s3,gp,0x1f
80000160:	03322223          	sw	s3,36(tp) # 24 <MMODE_SIG+0x21>

80000164 <inst_10>:
80000164:	00200c93          	li	s9,2
80000168:	411cde93          	sra	t4,s9,0x11
8000016c:	03d22423          	sw	t4,40(tp) # 28 <MMODE_SIG+0x25>

80000170 <inst_11>:
80000170:	00800f13          	li	t5,8
80000174:	411f5193          	sra	gp,t5,0x11
80000178:	02322623          	sw	gp,44(tp) # 2c <MMODE_SIG+0x29>

8000017c <inst_12>:
8000017c:	01000113          	li	sp,16
80000180:	41215b13          	sra	s6,sp,0x12
80000184:	03622823          	sw	s6,48(tp) # 30 <MMODE_SIG+0x2d>

80000188 <inst_13>:
80000188:	02000613          	li	a2,32
8000018c:	40d65113          	sra	sp,a2,0xd
80000190:	02222a23          	sw	sp,52(tp) # 34 <MMODE_SIG+0x31>

80000194 <inst_14>:
80000194:	04000093          	li	ra,64
80000198:	4170d613          	sra	a2,ra,0x17
8000019c:	02c22c23          	sw	a2,56(tp) # 38 <MMODE_SIG+0x35>

800001a0 <inst_15>:
800001a0:	08000a13          	li	s4,128
800001a4:	409a5c13          	sra	s8,s4,0x9
800001a8:	03822e23          	sw	s8,60(tp) # 3c <MMODE_SIG+0x39>

800001ac <inst_16>:
800001ac:	10000593          	li	a1,256
800001b0:	4105d013          	sra	zero,a1,0x10
800001b4:	04022023          	sw	zero,64(tp) # 40 <MMODE_SIG+0x3d>

800001b8 <inst_17>:
800001b8:	20000d13          	li	s10,512
800001bc:	409d5413          	sra	s0,s10,0x9
800001c0:	04822223          	sw	s0,68(tp) # 44 <MMODE_SIG+0x41>

800001c4 <inst_18>:
800001c4:	40000493          	li	s1,1024
800001c8:	4114d893          	sra	a7,s1,0x11
800001cc:	05122423          	sw	a7,72(tp) # 48 <MMODE_SIG+0x45>

800001d0 <inst_19>:
800001d0:	00001837          	lui	a6,0x1
800001d4:	80080813          	add	a6,a6,-2048 # 800 <offset+0x6fc>
800001d8:	41b85b93          	sra	s7,a6,0x1b
800001dc:	05722623          	sw	s7,76(tp) # 4c <MMODE_SIG+0x49>

800001e0 <inst_20>:
800001e0:	00001737          	lui	a4,0x1
800001e4:	40575693          	sra	a3,a4,0x5
800001e8:	04d22823          	sw	a3,80(tp) # 50 <MMODE_SIG+0x4d>

800001ec <inst_21>:
800001ec:	00002ab7          	lui	s5,0x2
800001f0:	401ad393          	sra	t2,s5,0x1
800001f4:	04722a23          	sw	t2,84(tp) # 54 <MMODE_SIG+0x51>
800001f8:	00000013          	nop
800001fc:	00000013          	nop
80000200:	00003117          	auipc	sp,0x3
80000204:	f6c10113          	add	sp,sp,-148 # 8000316c <signature_x2_0>
80000208:	00000013          	nop
8000020c:	00000013          	nop
80000210:	00000013          	nop
80000214:	00000013          	nop
80000218:	00000013          	nop
8000021c:	00000013          	nop

80000220 <inst_22>:
80000220:	000042b7          	lui	t0,0x4
80000224:	4052d913          	sra	s2,t0,0x5
80000228:	01212023          	sw	s2,0(sp)

8000022c <inst_23>:
8000022c:	00000013          	nop
80000230:	41105d13          	sra	s10,zero,0x11
80000234:	01a12223          	sw	s10,4(sp)

80000238 <inst_24>:
80000238:	00010c37          	lui	s8,0x10
8000023c:	40dc5213          	sra	tp,s8,0xd
80000240:	00412423          	sw	tp,8(sp)

80000244 <inst_25>:
80000244:	000207b7          	lui	a5,0x20
80000248:	4127d493          	sra	s1,a5,0x12
8000024c:	00912623          	sw	s1,12(sp)

80000250 <inst_26>:
80000250:	000409b7          	lui	s3,0x40
80000254:	41f9d313          	sra	t1,s3,0x1f
80000258:	00612823          	sw	t1,16(sp)

8000025c <inst_27>:
8000025c:	00080e37          	lui	t3,0x80
80000260:	415e5a93          	sra	s5,t3,0x15
80000264:	01512a23          	sw	s5,20(sp)

80000268 <inst_28>:
80000268:	00200db7          	lui	s11,0x200
8000026c:	417ddf93          	sra	t6,s11,0x17
80000270:	01f12c23          	sw	t6,24(sp)

80000274 <inst_29>:
80000274:	00400337          	lui	t1,0x400
80000278:	41235093          	sra	ra,t1,0x12
8000027c:	00112e23          	sw	ra,28(sp)

80000280 <inst_30>:
80000280:	00800237          	lui	tp,0x800
80000284:	40b25793          	sra	a5,tp,0xb
80000288:	02f12023          	sw	a5,32(sp)

8000028c <inst_31>:
8000028c:	01000eb7          	lui	t4,0x1000
80000290:	41fed813          	sra	a6,t4,0x1f
80000294:	03012223          	sw	a6,36(sp)

80000298 <inst_32>:
80000298:	02000537          	lui	a0,0x2000
8000029c:	40055593          	sra	a1,a0,0x0
800002a0:	02b12423          	sw	a1,40(sp)

800002a4 <inst_33>:
800002a4:	04000537          	lui	a0,0x4000
800002a8:	40655593          	sra	a1,a0,0x6
800002ac:	02b12623          	sw	a1,44(sp)

800002b0 <inst_34>:
800002b0:	08000537          	lui	a0,0x8000
800002b4:	40755593          	sra	a1,a0,0x7
800002b8:	02b12823          	sw	a1,48(sp)

800002bc <inst_35>:
800002bc:	10000537          	lui	a0,0x10000
800002c0:	40055593          	sra	a1,a0,0x0
800002c4:	02b12a23          	sw	a1,52(sp)

800002c8 <inst_36>:
800002c8:	20000537          	lui	a0,0x20000
800002cc:	40c55593          	sra	a1,a0,0xc
800002d0:	02b12c23          	sw	a1,56(sp)

800002d4 <inst_37>:
800002d4:	40000537          	lui	a0,0x40000
800002d8:	40855593          	sra	a1,a0,0x8
800002dc:	02b12e23          	sw	a1,60(sp)

800002e0 <inst_38>:
800002e0:	ffe00513          	li	a0,-2
800002e4:	40155593          	sra	a1,a0,0x1
800002e8:	04b12023          	sw	a1,64(sp)

800002ec <inst_39>:
800002ec:	ffd00513          	li	a0,-3
800002f0:	41055593          	sra	a1,a0,0x10
800002f4:	04b12223          	sw	a1,68(sp)

800002f8 <inst_40>:
800002f8:	ffb00513          	li	a0,-5
800002fc:	41255593          	sra	a1,a0,0x12
80000300:	04b12423          	sw	a1,72(sp)

80000304 <inst_41>:
80000304:	fef00513          	li	a0,-17
80000308:	40055593          	sra	a1,a0,0x0
8000030c:	04b12623          	sw	a1,76(sp)

80000310 <inst_42>:
80000310:	fdf00513          	li	a0,-33
80000314:	40855593          	sra	a1,a0,0x8
80000318:	04b12823          	sw	a1,80(sp)

8000031c <inst_43>:
8000031c:	fbf00513          	li	a0,-65
80000320:	40455593          	sra	a1,a0,0x4
80000324:	04b12a23          	sw	a1,84(sp)

80000328 <inst_44>:
80000328:	f7f00513          	li	a0,-129
8000032c:	40f55593          	sra	a1,a0,0xf
80000330:	04b12c23          	sw	a1,88(sp)

80000334 <inst_45>:
80000334:	eff00513          	li	a0,-257
80000338:	40b55593          	sra	a1,a0,0xb
8000033c:	04b12e23          	sw	a1,92(sp)

80000340 <inst_46>:
80000340:	dff00513          	li	a0,-513
80000344:	40d55593          	sra	a1,a0,0xd
80000348:	06b12023          	sw	a1,96(sp)

8000034c <inst_47>:
8000034c:	bff00513          	li	a0,-1025
80000350:	41e55593          	sra	a1,a0,0x1e
80000354:	06b12223          	sw	a1,100(sp)

80000358 <inst_48>:
80000358:	fffff537          	lui	a0,0xfffff
8000035c:	7ff50513          	add	a0,a0,2047 # fffff7ff <immx+0x452f1d2f>
80000360:	40d55593          	sra	a1,a0,0xd
80000364:	06b12423          	sw	a1,104(sp)

80000368 <inst_49>:
80000368:	fffff537          	lui	a0,0xfffff
8000036c:	fff50513          	add	a0,a0,-1 # ffffefff <immx+0x452f152f>
80000370:	40f55593          	sra	a1,a0,0xf
80000374:	06b12623          	sw	a1,108(sp)

80000378 <inst_50>:
80000378:	ffffe537          	lui	a0,0xffffe
8000037c:	fff50513          	add	a0,a0,-1 # ffffdfff <immx+0x452f052f>
80000380:	41d55593          	sra	a1,a0,0x1d
80000384:	06b12823          	sw	a1,112(sp)

80000388 <inst_51>:
80000388:	ffffc537          	lui	a0,0xffffc
8000038c:	fff50513          	add	a0,a0,-1 # ffffbfff <immx+0x452ee52f>
80000390:	40355593          	sra	a1,a0,0x3
80000394:	06b12a23          	sw	a1,116(sp)

80000398 <inst_52>:
80000398:	ffff8537          	lui	a0,0xffff8
8000039c:	fff50513          	add	a0,a0,-1 # ffff7fff <immx+0x452ea52f>
800003a0:	40055593          	sra	a1,a0,0x0
800003a4:	06b12c23          	sw	a1,120(sp)

800003a8 <inst_53>:
800003a8:	ffff0537          	lui	a0,0xffff0
800003ac:	fff50513          	add	a0,a0,-1 # fffeffff <immx+0x452e252f>
800003b0:	40d55593          	sra	a1,a0,0xd
800003b4:	06b12e23          	sw	a1,124(sp)

800003b8 <inst_54>:
800003b8:	fffc0537          	lui	a0,0xfffc0
800003bc:	fff50513          	add	a0,a0,-1 # fffbffff <immx+0x452b252f>
800003c0:	41155593          	sra	a1,a0,0x11
800003c4:	08b12023          	sw	a1,128(sp)

800003c8 <inst_55>:
800003c8:	fff80537          	lui	a0,0xfff80
800003cc:	fff50513          	add	a0,a0,-1 # fff7ffff <immx+0x4527252f>
800003d0:	40955593          	sra	a1,a0,0x9
800003d4:	08b12223          	sw	a1,132(sp)

800003d8 <inst_56>:
800003d8:	fff00537          	lui	a0,0xfff00
800003dc:	fff50513          	add	a0,a0,-1 # ffefffff <immx+0x451f252f>
800003e0:	40155593          	sra	a1,a0,0x1
800003e4:	08b12423          	sw	a1,136(sp)

800003e8 <inst_57>:
800003e8:	ffe00537          	lui	a0,0xffe00
800003ec:	fff50513          	add	a0,a0,-1 # ffdfffff <immx+0x450f252f>
800003f0:	41155593          	sra	a1,a0,0x11
800003f4:	08b12623          	sw	a1,140(sp)

800003f8 <inst_58>:
800003f8:	ffc00537          	lui	a0,0xffc00
800003fc:	fff50513          	add	a0,a0,-1 # ffbfffff <immx+0x44ef252f>
80000400:	41155593          	sra	a1,a0,0x11
80000404:	08b12823          	sw	a1,144(sp)

80000408 <inst_59>:
80000408:	ff800537          	lui	a0,0xff800
8000040c:	fff50513          	add	a0,a0,-1 # ff7fffff <immx+0x44af252f>
80000410:	40e55593          	sra	a1,a0,0xe
80000414:	08b12a23          	sw	a1,148(sp)

80000418 <inst_60>:
80000418:	fe000537          	lui	a0,0xfe000
8000041c:	fff50513          	add	a0,a0,-1 # fdffffff <immx+0x432f252f>
80000420:	40455593          	sra	a1,a0,0x4
80000424:	08b12c23          	sw	a1,152(sp)

80000428 <inst_61>:
80000428:	fc000537          	lui	a0,0xfc000
8000042c:	fff50513          	add	a0,a0,-1 # fbffffff <immx+0x412f252f>
80000430:	41255593          	sra	a1,a0,0x12
80000434:	08b12e23          	sw	a1,156(sp)

80000438 <inst_62>:
80000438:	f8000537          	lui	a0,0xf8000
8000043c:	fff50513          	add	a0,a0,-1 # f7ffffff <immx+0x3d2f252f>
80000440:	40d55593          	sra	a1,a0,0xd
80000444:	0ab12023          	sw	a1,160(sp)

80000448 <inst_63>:
80000448:	f0000537          	lui	a0,0xf0000
8000044c:	fff50513          	add	a0,a0,-1 # efffffff <immx+0x352f252f>
80000450:	40355593          	sra	a1,a0,0x3
80000454:	0ab12223          	sw	a1,164(sp)

80000458 <inst_64>:
80000458:	e0000537          	lui	a0,0xe0000
8000045c:	fff50513          	add	a0,a0,-1 # dfffffff <immx+0x252f252f>
80000460:	40755593          	sra	a1,a0,0x7
80000464:	0ab12423          	sw	a1,168(sp)

80000468 <inst_65>:
80000468:	c0000537          	lui	a0,0xc0000
8000046c:	fff50513          	add	a0,a0,-1 # bfffffff <immx+0x52f252f>
80000470:	41355593          	sra	a1,a0,0x13
80000474:	0ab12623          	sw	a1,172(sp)

80000478 <inst_66>:
80000478:	55555537          	lui	a0,0x55555
8000047c:	55550513          	add	a0,a0,1365 # 55555555 <absimm+0x10263026>
80000480:	41555593          	sra	a1,a0,0x15
80000484:	0ab12823          	sw	a1,176(sp)

80000488 <inst_67>:
80000488:	aaaab537          	lui	a0,0xaaaab
8000048c:	aaa50513          	add	a0,a0,-1366 # aaaaaaaa <_end+0x2aaa782a>
80000490:	40f55593          	sra	a1,a0,0xf
80000494:	0ab12a23          	sw	a1,180(sp)

80000498 <inst_68>:
80000498:	00300513          	li	a0,3
8000049c:	40a55593          	sra	a1,a0,0xa
800004a0:	0ab12c23          	sw	a1,184(sp)

800004a4 <inst_69>:
800004a4:	33333537          	lui	a0,0x33333
800004a8:	33350513          	add	a0,a0,819 # 33333333 <offset+0x3333322f>
800004ac:	40055593          	sra	a1,a0,0x0
800004b0:	0ab12e23          	sw	a1,188(sp)

800004b4 <inst_70>:
800004b4:	66666537          	lui	a0,0x66666
800004b8:	66750513          	add	a0,a0,1639 # 66666667 <absimm+0x21374138>
800004bc:	40a55593          	sra	a1,a0,0xa
800004c0:	0cb12023          	sw	a1,192(sp)

800004c4 <inst_71>:
800004c4:	ffff5537          	lui	a0,0xffff5
800004c8:	afd50513          	add	a0,a0,-1283 # ffff4afd <immx+0x452e702d>
800004cc:	40155593          	sra	a1,a0,0x1
800004d0:	0cb12223          	sw	a1,196(sp)

800004d4 <inst_72>:
800004d4:	0000b537          	lui	a0,0xb
800004d8:	50550513          	add	a0,a0,1285 # b505 <offset+0xb401>
800004dc:	40055593          	sra	a1,a0,0x0
800004e0:	0cb12423          	sw	a1,200(sp)

800004e4 <inst_73>:
800004e4:	55555537          	lui	a0,0x55555
800004e8:	55550513          	add	a0,a0,1365 # 55555555 <absimm+0x10263026>
800004ec:	40255593          	sra	a1,a0,0x2
800004f0:	0cb12623          	sw	a1,204(sp)

800004f4 <inst_74>:
800004f4:	66666537          	lui	a0,0x66666
800004f8:	66650513          	add	a0,a0,1638 # 66666666 <absimm+0x21374137>
800004fc:	41b55593          	sra	a1,a0,0x1b
80000500:	0cb12823          	sw	a1,208(sp)

80000504 <inst_75>:
80000504:	ffff5537          	lui	a0,0xffff5
80000508:	afc50513          	add	a0,a0,-1284 # ffff4afc <immx+0x452e702c>
8000050c:	40c55593          	sra	a1,a0,0xc
80000510:	0cb12a23          	sw	a1,212(sp)

80000514 <inst_76>:
80000514:	0000b537          	lui	a0,0xb
80000518:	50450513          	add	a0,a0,1284 # b504 <offset+0xb400>
8000051c:	40055593          	sra	a1,a0,0x0
80000520:	0cb12c23          	sw	a1,216(sp)

80000524 <inst_77>:
80000524:	55555537          	lui	a0,0x55555
80000528:	55450513          	add	a0,a0,1364 # 55555554 <absimm+0x10263025>
8000052c:	40655593          	sra	a1,a0,0x6
80000530:	0cb12e23          	sw	a1,220(sp)

80000534 <inst_78>:
80000534:	33333537          	lui	a0,0x33333
80000538:	33250513          	add	a0,a0,818 # 33333332 <offset+0x3333322e>
8000053c:	41e55593          	sra	a1,a0,0x1e
80000540:	0eb12023          	sw	a1,224(sp)

80000544 <inst_79>:
80000544:	66666537          	lui	a0,0x66666
80000548:	66550513          	add	a0,a0,1637 # 66666665 <absimm+0x21374136>
8000054c:	41f55593          	sra	a1,a0,0x1f
80000550:	0eb12223          	sw	a1,228(sp)

80000554 <inst_80>:
80000554:	0000b537          	lui	a0,0xb
80000558:	50350513          	add	a0,a0,1283 # b503 <offset+0xb3ff>
8000055c:	41755593          	sra	a1,a0,0x17
80000560:	0eb12423          	sw	a1,232(sp)

80000564 <inst_81>:
80000564:	55555537          	lui	a0,0x55555
80000568:	55650513          	add	a0,a0,1366 # 55555556 <absimm+0x10263027>
8000056c:	41b55593          	sra	a1,a0,0x1b
80000570:	0eb12623          	sw	a1,236(sp)

80000574 <inst_82>:
80000574:	aaaab537          	lui	a0,0xaaaab
80000578:	aab50513          	add	a0,a0,-1365 # aaaaaaab <_end+0x2aaa782b>
8000057c:	40a55593          	sra	a1,a0,0xa
80000580:	0eb12823          	sw	a1,240(sp)

80000584 <inst_83>:
80000584:	00600513          	li	a0,6
80000588:	40655593          	sra	a1,a0,0x6
8000058c:	0eb12a23          	sw	a1,244(sp)

80000590 <inst_84>:
80000590:	33333537          	lui	a0,0x33333
80000594:	33450513          	add	a0,a0,820 # 33333334 <offset+0x33333230>
80000598:	40c55593          	sra	a1,a0,0xc
8000059c:	0eb12c23          	sw	a1,248(sp)

800005a0 <inst_85>:
800005a0:	10000513          	li	a0,256
800005a4:	41055593          	sra	a1,a0,0x10
800005a8:	0eb12e23          	sw	a1,252(sp)

800005ac <inst_86>:
800005ac:	00008537          	lui	a0,0x8
800005b0:	41155593          	sra	a1,a0,0x11
800005b4:	10b12023          	sw	a1,256(sp)

800005b8 <cleanup_epilogs>:
800005b8:	0200006f          	j	800005d8 <exit_cleanup>

800005bc <abort_tests>:
800005bc:	17812e83          	lw	t4,376(sp)
800005c0:	18012303          	lw	t1,384(sp)
800005c4:	01d30333          	add	t1,t1,t4
800005c8:	bad0e337          	lui	t1,0xbad0e
800005cc:	ad030313          	add	t1,t1,-1328 # bad0dad0 <immx>
800005d0:	fe6eae23          	sw	t1,-4(t4) # fffffc <offset+0xfffef8>
800005d4:	0040006f          	j	800005d8 <exit_cleanup>

800005d8 <exit_cleanup>:
800005d8:	00100093          	li	ra,1

800005dc <write_tohost>:
800005dc:	00001f17          	auipc	t5,0x1
800005e0:	a21f2223          	sw	ra,-1500(t5) # 80001000 <tohost>
800005e4:	ff9ff06f          	j	800005dc <write_tohost>
	...

Disassembly of section .tohost:

80001000 <tohost>:
	...

80001100 <fromhost>:
	...

Disassembly of section .data:

80002000 <rvtest_data_begin>:
80002000:	cafe                	sw	t6,84(sp)
80002002:	babe                	.2byte	0xbabe
80002004:	cafe                	sw	t6,84(sp)
80002006:	babe                	.2byte	0xbabe
80002008:	cafe                	sw	t6,84(sp)
8000200a:	babe                	.2byte	0xbabe
8000200c:	cafe                	sw	t6,84(sp)
8000200e:	babe                	.2byte	0xbabe

80002010 <mtrap_sigptr>:
80002010:	deadbeef          	jal	t4,7ffdd5fa <absimm+0x3aceb0cb>
80002014:	deadbeef          	jal	t4,7ffdd5fe <absimm+0x3aceb0cf>
	...

80003000 <begin_regstate>:
80003000:	0080                	add	s0,sp,64
	...

80003100 <end_regstate>:
80003100:	0004                	.2byte	0x4
	...

80003110 <begin_signature>:
80003110:	a309                	j	80003612 <_end+0x392>
80003112:	6f5c                	.2byte	0x6f5c

80003114 <signature_x4_0>:
80003114:	deadbeef          	jal	t4,7ffde6fe <absimm+0x3acec1cf>
80003118:	deadbeef          	jal	t4,7ffde702 <absimm+0x3acec1d3>
8000311c:	deadbeef          	jal	t4,7ffde706 <absimm+0x3acec1d7>
80003120:	deadbeef          	jal	t4,7ffde70a <absimm+0x3acec1db>
80003124:	deadbeef          	jal	t4,7ffde70e <absimm+0x3acec1df>
80003128:	deadbeef          	jal	t4,7ffde712 <absimm+0x3acec1e3>
8000312c:	deadbeef          	jal	t4,7ffde716 <absimm+0x3acec1e7>
80003130:	deadbeef          	jal	t4,7ffde71a <absimm+0x3acec1eb>
80003134:	deadbeef          	jal	t4,7ffde71e <absimm+0x3acec1ef>
80003138:	deadbeef          	jal	t4,7ffde722 <absimm+0x3acec1f3>
8000313c:	deadbeef          	jal	t4,7ffde726 <absimm+0x3acec1f7>
80003140:	deadbeef          	jal	t4,7ffde72a <absimm+0x3acec1fb>
80003144:	deadbeef          	jal	t4,7ffde72e <absimm+0x3acec1ff>
80003148:	deadbeef          	jal	t4,7ffde732 <absimm+0x3acec203>
8000314c:	deadbeef          	jal	t4,7ffde736 <absimm+0x3acec207>
80003150:	deadbeef          	jal	t4,7ffde73a <absimm+0x3acec20b>
80003154:	deadbeef          	jal	t4,7ffde73e <absimm+0x3acec20f>
80003158:	deadbeef          	jal	t4,7ffde742 <absimm+0x3acec213>
8000315c:	deadbeef          	jal	t4,7ffde746 <absimm+0x3acec217>
80003160:	deadbeef          	jal	t4,7ffde74a <absimm+0x3acec21b>
80003164:	deadbeef          	jal	t4,7ffde74e <absimm+0x3acec21f>
80003168:	deadbeef          	jal	t4,7ffde752 <absimm+0x3acec223>

8000316c <signature_x2_0>:
8000316c:	deadbeef          	jal	t4,7ffde756 <absimm+0x3acec227>
80003170:	deadbeef          	jal	t4,7ffde75a <absimm+0x3acec22b>
80003174:	deadbeef          	jal	t4,7ffde75e <absimm+0x3acec22f>
80003178:	deadbeef          	jal	t4,7ffde762 <absimm+0x3acec233>
8000317c:	deadbeef          	jal	t4,7ffde766 <absimm+0x3acec237>
80003180:	deadbeef          	jal	t4,7ffde76a <absimm+0x3acec23b>
80003184:	deadbeef          	jal	t4,7ffde76e <absimm+0x3acec23f>
80003188:	deadbeef          	jal	t4,7ffde772 <absimm+0x3acec243>
8000318c:	deadbeef          	jal	t4,7ffde776 <absimm+0x3acec247>
80003190:	deadbeef          	jal	t4,7ffde77a <absimm+0x3acec24b>
80003194:	deadbeef          	jal	t4,7ffde77e <absimm+0x3acec24f>
80003198:	deadbeef          	jal	t4,7ffde782 <absimm+0x3acec253>
8000319c:	deadbeef          	jal	t4,7ffde786 <absimm+0x3acec257>
800031a0:	deadbeef          	jal	t4,7ffde78a <absimm+0x3acec25b>
800031a4:	deadbeef          	jal	t4,7ffde78e <absimm+0x3acec25f>
800031a8:	deadbeef          	jal	t4,7ffde792 <absimm+0x3acec263>
800031ac:	deadbeef          	jal	t4,7ffde796 <absimm+0x3acec267>
800031b0:	deadbeef          	jal	t4,7ffde79a <absimm+0x3acec26b>
800031b4:	deadbeef          	jal	t4,7ffde79e <absimm+0x3acec26f>
800031b8:	deadbeef          	jal	t4,7ffde7a2 <absimm+0x3acec273>
800031bc:	deadbeef          	jal	t4,7ffde7a6 <absimm+0x3acec277>
800031c0:	deadbeef          	jal	t4,7ffde7aa <absimm+0x3acec27b>
800031c4:	deadbeef          	jal	t4,7ffde7ae <absimm+0x3acec27f>
800031c8:	deadbeef          	jal	t4,7ffde7b2 <absimm+0x3acec283>
800031cc:	deadbeef          	jal	t4,7ffde7b6 <absimm+0x3acec287>
800031d0:	deadbeef          	jal	t4,7ffde7ba <absimm+0x3acec28b>
800031d4:	deadbeef          	jal	t4,7ffde7be <absimm+0x3acec28f>
800031d8:	deadbeef          	jal	t4,7ffde7c2 <absimm+0x3acec293>
800031dc:	deadbeef          	jal	t4,7ffde7c6 <absimm+0x3acec297>
800031e0:	deadbeef          	jal	t4,7ffde7ca <absimm+0x3acec29b>
800031e4:	deadbeef          	jal	t4,7ffde7ce <absimm+0x3acec29f>
800031e8:	deadbeef          	jal	t4,7ffde7d2 <absimm+0x3acec2a3>
800031ec:	deadbeef          	jal	t4,7ffde7d6 <absimm+0x3acec2a7>
800031f0:	deadbeef          	jal	t4,7ffde7da <absimm+0x3acec2ab>
800031f4:	deadbeef          	jal	t4,7ffde7de <absimm+0x3acec2af>
800031f8:	deadbeef          	jal	t4,7ffde7e2 <absimm+0x3acec2b3>
800031fc:	deadbeef          	jal	t4,7ffde7e6 <absimm+0x3acec2b7>
80003200:	deadbeef          	jal	t4,7ffde7ea <absimm+0x3acec2bb>
80003204:	deadbeef          	jal	t4,7ffde7ee <absimm+0x3acec2bf>
80003208:	deadbeef          	jal	t4,7ffde7f2 <absimm+0x3acec2c3>
8000320c:	deadbeef          	jal	t4,7ffde7f6 <absimm+0x3acec2c7>
80003210:	deadbeef          	jal	t4,7ffde7fa <absimm+0x3acec2cb>
80003214:	deadbeef          	jal	t4,7ffde7fe <absimm+0x3acec2cf>
80003218:	deadbeef          	jal	t4,7ffde802 <absimm+0x3acec2d3>
8000321c:	deadbeef          	jal	t4,7ffde806 <absimm+0x3acec2d7>
80003220:	deadbeef          	jal	t4,7ffde80a <absimm+0x3acec2db>
80003224:	deadbeef          	jal	t4,7ffde80e <absimm+0x3acec2df>
80003228:	deadbeef          	jal	t4,7ffde812 <absimm+0x3acec2e3>
8000322c:	deadbeef          	jal	t4,7ffde816 <absimm+0x3acec2e7>
80003230:	deadbeef          	jal	t4,7ffde81a <absimm+0x3acec2eb>
80003234:	deadbeef          	jal	t4,7ffde81e <absimm+0x3acec2ef>
80003238:	deadbeef          	jal	t4,7ffde822 <absimm+0x3acec2f3>
8000323c:	deadbeef          	jal	t4,7ffde826 <absimm+0x3acec2f7>
80003240:	deadbeef          	jal	t4,7ffde82a <absimm+0x3acec2fb>
80003244:	deadbeef          	jal	t4,7ffde82e <absimm+0x3acec2ff>
80003248:	deadbeef          	jal	t4,7ffde832 <absimm+0x3acec303>
8000324c:	deadbeef          	jal	t4,7ffde836 <absimm+0x3acec307>
80003250:	deadbeef          	jal	t4,7ffde83a <absimm+0x3acec30b>
80003254:	deadbeef          	jal	t4,7ffde83e <absimm+0x3acec30f>
80003258:	deadbeef          	jal	t4,7ffde842 <absimm+0x3acec313>
8000325c:	deadbeef          	jal	t4,7ffde846 <absimm+0x3acec317>
80003260:	deadbeef          	jal	t4,7ffde84a <absimm+0x3acec31b>
80003264:	deadbeef          	jal	t4,7ffde84e <absimm+0x3acec31f>
80003268:	deadbeef          	jal	t4,7ffde852 <absimm+0x3acec323>
8000326c:	deadbeef          	jal	t4,7ffde856 <absimm+0x3acec327>

80003270 <sig_end_canary>:
80003270:	a309                	j	80003772 <_end+0x4f2>
80003272:	6f5c                	.2byte	0x6f5c

80003274 <rvtest_sig_end>:
	...

Disassembly of section .riscv.attributes:

00000000 <.riscv.attributes>:
   0:	1941                	add	s2,s2,-16
   2:	0000                	unimp
   4:	7200                	.2byte	0x7200
   6:	7369                	lui	t1,0xffffa
   8:	01007663          	bgeu	zero,a6,14 <MMODE_SIG+0x11>
   c:	0000000f          	fence	unknown,unknown
  10:	7205                	lui	tp,0xfffe1
  12:	3376                	.2byte	0x3376
  14:	6932                	.2byte	0x6932
  16:	7032                	.2byte	0x7032
  18:	0031                	c.nop	12

Disassembly of section .debug_line:

00000000 <.debug_line>:
   0:	0268                	add	a0,sp,268
   2:	0000                	unimp
   4:	0005                	c.nop	1
   6:	0004                	.2byte	0x4
   8:	002e                	c.slli	zero,0xb
   a:	0000                	unimp
   c:	0101                	add	sp,sp,0
   e:	fb01                	bnez	a4,ffffff1e <imm12+0x44e>
  10:	0d0e                	sll	s10,s10,0x3
  12:	0100                	add	s0,sp,128
  14:	0101                	add	sp,sp,0
  16:	0001                	nop
  18:	0000                	unimp
  1a:	0001                	nop
  1c:	0100                	add	s0,sp,128
  1e:	0101                	add	sp,sp,0
  20:	021f 0000 0000      	.byte	0x1f, 0x02, 0x00, 0x00, 0x00, 0x00
  26:	0000005b          	.4byte	0x5b
  2a:	0102                	c.slli64	sp
  2c:	021f 020f 00c0      	.byte	0x1f, 0x02, 0x0f, 0x02, 0xc0, 0x00
  32:	0000                	unimp
  34:	c001                	beqz	s0,34 <MMODE_SIG+0x31>
  36:	0000                	unimp
  38:	0100                	add	s0,sp,128
  3a:	0500                	add	s0,sp,640
  3c:	0002                	c.slli64	zero
  3e:	0000                	unimp
  40:	0380                	add	s0,sp,448
  42:	0119                	add	sp,sp,6
  44:	c0090603          	lb	a2,-1024(s2)
  48:	0100                	add	s0,sp,128
  4a:	20090503          	lb	a0,512(s2)
  4e:	0100                	add	s0,sp,128
  50:	0c090503          	lb	a0,192(s2)
  54:	0100                	add	s0,sp,128
  56:	0c090503          	lb	a0,192(s2)
  5a:	0100                	add	s0,sp,128
  5c:	10090503          	lb	a0,256(s2)
  60:	0100                	add	s0,sp,128
  62:	0c090503          	lb	a0,192(s2)
  66:	0100                	add	s0,sp,128
  68:	10090503          	lb	a0,256(s2)
  6c:	0100                	add	s0,sp,128
  6e:	0c090503          	lb	a0,192(s2)
  72:	0100                	add	s0,sp,128
  74:	0c090503          	lb	a0,192(s2)
  78:	0100                	add	s0,sp,128
  7a:	0c090503          	lb	a0,192(s2)
  7e:	0100                	add	s0,sp,128
  80:	0c090503          	lb	a0,192(s2)
  84:	0100                	add	s0,sp,128
  86:	10090503          	lb	a0,256(s2)
  8a:	0100                	add	s0,sp,128
  8c:	0c090503          	lb	a0,192(s2)
  90:	0100                	add	s0,sp,128
  92:	0c090503          	lb	a0,192(s2)
  96:	0100                	add	s0,sp,128
  98:	0c090503          	lb	a0,192(s2)
  9c:	0100                	add	s0,sp,128
  9e:	0c090503          	lb	a0,192(s2)
  a2:	0100                	add	s0,sp,128
  a4:	0c090503          	lb	a0,192(s2)
  a8:	0100                	add	s0,sp,128
  aa:	0c090503          	lb	a0,192(s2)
  ae:	0100                	add	s0,sp,128
  b0:	0c090503          	lb	a0,192(s2)
  b4:	0100                	add	s0,sp,128
  b6:	0c090503          	lb	a0,192(s2)
  ba:	0100                	add	s0,sp,128
  bc:	0c090503          	lb	a0,192(s2)
  c0:	0100                	add	s0,sp,128
  c2:	10090503          	lb	a0,256(s2)
  c6:	0100                	add	s0,sp,128
  c8:	0c090503          	lb	a0,192(s2)
  cc:	0100                	add	s0,sp,128
  ce:	14090103          	lb	sp,320(s2)
  d2:	0100                	add	s0,sp,128
  d4:	20090503          	lb	a0,512(s2)
  d8:	0100                	add	s0,sp,128
  da:	0c090503          	lb	a0,192(s2)
  de:	0100                	add	s0,sp,128
  e0:	0c090503          	lb	a0,192(s2)
  e4:	0100                	add	s0,sp,128
  e6:	0c090503          	lb	a0,192(s2)
  ea:	0100                	add	s0,sp,128
  ec:	0c090503          	lb	a0,192(s2)
  f0:	0100                	add	s0,sp,128
  f2:	0c090503          	lb	a0,192(s2)
  f6:	0100                	add	s0,sp,128
  f8:	0c090503          	lb	a0,192(s2)
  fc:	0100                	add	s0,sp,128
  fe:	0c090503          	lb	a0,192(s2)
 102:	0100                	add	s0,sp,128
 104:	0c090503          	lb	a0,192(s2)
 108:	0100                	add	s0,sp,128
 10a:	0c090503          	lb	a0,192(s2)
 10e:	0100                	add	s0,sp,128
 110:	0c090503          	lb	a0,192(s2)
 114:	0100                	add	s0,sp,128
 116:	0c090503          	lb	a0,192(s2)
 11a:	0100                	add	s0,sp,128
 11c:	0c090503          	lb	a0,192(s2)
 120:	0100                	add	s0,sp,128
 122:	0c090503          	lb	a0,192(s2)
 126:	0100                	add	s0,sp,128
 128:	0c090503          	lb	a0,192(s2)
 12c:	0100                	add	s0,sp,128
 12e:	0c090503          	lb	a0,192(s2)
 132:	0100                	add	s0,sp,128
 134:	0c090503          	lb	a0,192(s2)
 138:	0100                	add	s0,sp,128
 13a:	0c090503          	lb	a0,192(s2)
 13e:	0100                	add	s0,sp,128
 140:	0c090503          	lb	a0,192(s2)
 144:	0100                	add	s0,sp,128
 146:	0c090503          	lb	a0,192(s2)
 14a:	0100                	add	s0,sp,128
 14c:	0c090503          	lb	a0,192(s2)
 150:	0100                	add	s0,sp,128
 152:	0c090503          	lb	a0,192(s2)
 156:	0100                	add	s0,sp,128
 158:	0c090503          	lb	a0,192(s2)
 15c:	0100                	add	s0,sp,128
 15e:	0c090503          	lb	a0,192(s2)
 162:	0100                	add	s0,sp,128
 164:	0c090503          	lb	a0,192(s2)
 168:	0100                	add	s0,sp,128
 16a:	0c090503          	lb	a0,192(s2)
 16e:	0100                	add	s0,sp,128
 170:	0c090503          	lb	a0,192(s2)
 174:	0100                	add	s0,sp,128
 176:	10090503          	lb	a0,256(s2)
 17a:	0100                	add	s0,sp,128
 17c:	10090503          	lb	a0,256(s2)
 180:	0100                	add	s0,sp,128
 182:	10090503          	lb	a0,256(s2)
 186:	0100                	add	s0,sp,128
 188:	10090503          	lb	a0,256(s2)
 18c:	0100                	add	s0,sp,128
 18e:	10090503          	lb	a0,256(s2)
 192:	0100                	add	s0,sp,128
 194:	10090503          	lb	a0,256(s2)
 198:	0100                	add	s0,sp,128
 19a:	10090503          	lb	a0,256(s2)
 19e:	0100                	add	s0,sp,128
 1a0:	10090503          	lb	a0,256(s2)
 1a4:	0100                	add	s0,sp,128
 1a6:	10090503          	lb	a0,256(s2)
 1aa:	0100                	add	s0,sp,128
 1ac:	10090503          	lb	a0,256(s2)
 1b0:	0100                	add	s0,sp,128
 1b2:	10090503          	lb	a0,256(s2)
 1b6:	0100                	add	s0,sp,128
 1b8:	10090503          	lb	a0,256(s2)
 1bc:	0100                	add	s0,sp,128
 1be:	10090503          	lb	a0,256(s2)
 1c2:	0100                	add	s0,sp,128
 1c4:	10090503          	lb	a0,256(s2)
 1c8:	0100                	add	s0,sp,128
 1ca:	10090503          	lb	a0,256(s2)
 1ce:	0100                	add	s0,sp,128
 1d0:	10090503          	lb	a0,256(s2)
 1d4:	0100                	add	s0,sp,128
 1d6:	10090503          	lb	a0,256(s2)
 1da:	0100                	add	s0,sp,128
 1dc:	10090503          	lb	a0,256(s2)
 1e0:	0100                	add	s0,sp,128
 1e2:	10090503          	lb	a0,256(s2)
 1e6:	0100                	add	s0,sp,128
 1e8:	10090503          	lb	a0,256(s2)
 1ec:	0100                	add	s0,sp,128
 1ee:	0c090503          	lb	a0,192(s2)
 1f2:	0100                	add	s0,sp,128
 1f4:	10090503          	lb	a0,256(s2)
 1f8:	0100                	add	s0,sp,128
 1fa:	10090503          	lb	a0,256(s2)
 1fe:	0100                	add	s0,sp,128
 200:	10090503          	lb	a0,256(s2)
 204:	0100                	add	s0,sp,128
 206:	10090503          	lb	a0,256(s2)
 20a:	0100                	add	s0,sp,128
 20c:	10090503          	lb	a0,256(s2)
 210:	0100                	add	s0,sp,128
 212:	10090503          	lb	a0,256(s2)
 216:	0100                	add	s0,sp,128
 218:	10090503          	lb	a0,256(s2)
 21c:	0100                	add	s0,sp,128
 21e:	10090503          	lb	a0,256(s2)
 222:	0100                	add	s0,sp,128
 224:	10090503          	lb	a0,256(s2)
 228:	0100                	add	s0,sp,128
 22a:	10090503          	lb	a0,256(s2)
 22e:	0100                	add	s0,sp,128
 230:	10090503          	lb	a0,256(s2)
 234:	0100                	add	s0,sp,128
 236:	10090503          	lb	a0,256(s2)
 23a:	0100                	add	s0,sp,128
 23c:	10090503          	lb	a0,256(s2)
 240:	0100                	add	s0,sp,128
 242:	10090503          	lb	a0,256(s2)
 246:	0100                	add	s0,sp,128
 248:	0c090503          	lb	a0,192(s2)
 24c:	0100                	add	s0,sp,128
 24e:	10090503          	lb	a0,256(s2)
 252:	0100                	add	s0,sp,128
 254:	0c090503          	lb	a0,192(s2)
 258:	0100                	add	s0,sp,128
 25a:	0c090403          	lb	s0,192(s2)
 25e:	0100                	add	s0,sp,128
 260:	20090103          	lb	sp,512(s2)
 264:	0100                	add	s0,sp,128
 266:	1009                	c.nop	-30
 268:	0000                	unimp
 26a:	0101                	add	sp,sp,0

Disassembly of section .debug_line_str:

00000000 <.debug_line_str>:
   0:	6d6f682f          	.4byte	0x6d6f682f
   4:	2f65                	jal	7bc <offset+0x6b8>
   6:	6f66                	.2byte	0x6f66
   8:	6372                	.2byte	0x6372
   a:	2f65                	jal	7c2 <offset+0x6be>
   c:	6544                	.2byte	0x6544
   e:	6f746b73          	.4byte	0x6f746b73
  12:	2f70                	.2byte	0x2f70
  14:	6b726f77          	.4byte	0x6b726f77
  18:	6d6f632f          	.4byte	0x6d6f632f
  1c:	6c70                	.2byte	0x6c70
  1e:	6169                	add	sp,sp,208
  20:	636e                	.2byte	0x636e
  22:	5f65                	li	t5,-7
  24:	6574                	.2byte	0x6574
  26:	6e697473          	.4byte	0x6e697473
  2a:	756f2f67          	.4byte	0x756f2f67
  2e:	5f72                	lw	t5,60(sp)
  30:	6972                	.2byte	0x6972
  32:	2f766373          	.4byte	0x2f766373
  36:	6b726f77          	.4byte	0x6b726f77
  3a:	7369722f          	.4byte	0x7369722f
  3e:	5f666f63          	bltu	a2,s6,63c <offset+0x538>
  42:	6b726f77          	.4byte	0x6b726f77
  46:	732f492f          	.4byte	0x732f492f
  4a:	6372                	.2byte	0x6372
  4c:	6172732f          	.4byte	0x6172732f
  50:	2d69                	jal	6ea <offset+0x5e6>
  52:	3130                	.2byte	0x3130
  54:	532e                	lw	t1,232(sp)
  56:	7475642f          	.4byte	0x7475642f
  5a:	2f00                	.2byte	0x2f00
  5c:	6f68                	.2byte	0x6f68
  5e:	656d                	lui	a0,0x1b
  60:	726f662f          	.4byte	0x726f662f
  64:	442f6563          	bltu	t5,sp,4ae <offset+0x3aa>
  68:	7365                	lui	t1,0xffff9
  6a:	706f746b          	.4byte	0x706f746b
  6e:	726f772f          	.4byte	0x726f772f
  72:	6f632f6b          	.4byte	0x6f632f6b
  76:	706d                	c.lui	zero,0xffffb
  78:	696c                	.2byte	0x696c
  7a:	6e61                	lui	t3,0x18
  7c:	745f6563          	bltu	t5,t0,7c6 <offset+0x6c2>
  80:	7365                	lui	t1,0xffff9
  82:	6974                	.2byte	0x6974
  84:	676e                	.2byte	0x676e
  86:	72756f2f          	.4byte	0x72756f2f
  8a:	725f 7369 7663      	.byte	0x5f, 0x72, 0x69, 0x73, 0x63, 0x76
  90:	7369722f          	.4byte	0x7369722f
  94:	612d7663          	bgeu	s10,s2,6a0 <offset+0x59c>
  98:	6372                	.2byte	0x6372
  9a:	2d68                	.2byte	0x2d68
  9c:	6574                	.2byte	0x6574
  9e:	722f7473          	.4byte	0x722f7473
  a2:	7369                	lui	t1,0xffffa
  a4:	742d7663          	bgeu	s10,sp,7f0 <offset+0x6ec>
  a8:	7365                	lui	t1,0xffff9
  aa:	2d74                	.2byte	0x2d74
  ac:	74697573          	.4byte	0x74697573
  b0:	2f65                	jal	868 <offset+0x764>
  b2:	7672                	.2byte	0x7672
  b4:	5f693233          	.4byte	0x5f693233
  b8:	2f6d                	jal	872 <offset+0x76e>
  ba:	2f49                	jal	84c <offset+0x748>
  bc:	00637273          	.4byte	0x637273
  c0:	69617273          	.4byte	0x69617273
  c4:	302d                	jal	fffff8ee <imm12+0xfffffe1e>
  c6:	2e31                	jal	3e2 <offset+0x2de>
  c8:	53 00             	Address 0xc8 is out of bounds.


Disassembly of section .debug_info:

00000000 <.debug_info>:
   0:	0021                	c.nop	8
   2:	0000                	unimp
   4:	0005                	c.nop	1
   6:	0401                	add	s0,s0,0
   8:	0000                	unimp
   a:	0000                	unimp
   c:	0001                	nop
   e:	0000                	unimp
  10:	0000                	unimp
  12:	0000                	unimp
  14:	ee80                	.2byte	0xee80
  16:	000c                	.2byte	0xc
  18:	0000                	unimp
  1a:	6f00                	.2byte	0x6f00
  1c:	0000                	unimp
  1e:	ca00                	sw	s0,16(a2)
  20:	0000                	unimp
  22:	0100                	add	s0,sp,128
  24:	80              	Address 0x24 is out of bounds.


Disassembly of section .debug_abbrev:

00000000 <.debug_abbrev>:
   0:	1101                	add	sp,sp,-32
   2:	1000                	add	s0,sp,32
   4:	12011117          	auipc	sp,0x12011
   8:	1b0e030f          	.4byte	0x1b0e030f
   c:	250e                	.2byte	0x250e
   e:	130e                	sll	t1,t1,0x23
  10:	0005                	c.nop	1
	...

Disassembly of section .debug_aranges:

00000000 <.debug_aranges>:
   0:	001c                	.2byte	0x1c
   2:	0000                	unimp
   4:	0002                	c.slli64	zero
   6:	0000                	unimp
   8:	0000                	unimp
   a:	0004                	.2byte	0x4
   c:	0000                	unimp
   e:	0000                	unimp
  10:	0000                	unimp
  12:	8000                	.2byte	0x8000
  14:	05e8                	add	a0,sp,716
	...

Disassembly of section .debug_str:

00000000 <.debug_str>:
   0:	6d6f682f          	.4byte	0x6d6f682f
   4:	2f65                	jal	7bc <offset+0x6b8>
   6:	6f66                	.2byte	0x6f66
   8:	6372                	.2byte	0x6372
   a:	2f65                	jal	7c2 <offset+0x6be>
   c:	6544                	.2byte	0x6544
   e:	6f746b73          	.4byte	0x6f746b73
  12:	2f70                	.2byte	0x2f70
  14:	6b726f77          	.4byte	0x6b726f77
  18:	6d6f632f          	.4byte	0x6d6f632f
  1c:	6c70                	.2byte	0x6c70
  1e:	6169                	add	sp,sp,208
  20:	636e                	.2byte	0x636e
  22:	5f65                	li	t5,-7
  24:	6574                	.2byte	0x6574
  26:	6e697473          	.4byte	0x6e697473
  2a:	756f2f67          	.4byte	0x756f2f67
  2e:	5f72                	lw	t5,60(sp)
  30:	6972                	.2byte	0x6972
  32:	2f766373          	.4byte	0x2f766373
  36:	6972                	.2byte	0x6972
  38:	2d766373          	.4byte	0x2d766373
  3c:	7261                	lui	tp,0xffff8
  3e:	742d6863          	bltu	s10,sp,78e <offset+0x68a>
  42:	7365                	lui	t1,0xffff9
  44:	2f74                	.2byte	0x2f74
  46:	6972                	.2byte	0x6972
  48:	2d766373          	.4byte	0x2d766373
  4c:	6574                	.2byte	0x6574
  4e:	732d7473          	.4byte	0x732d7473
  52:	6975                	lui	s2,0x1d
  54:	6574                	.2byte	0x6574
  56:	3376722f          	.4byte	0x3376722f
  5a:	6932                	.2byte	0x6932
  5c:	6d5f 492f 732f      	.byte	0x5f, 0x6d, 0x2f, 0x49, 0x2f, 0x73
  62:	6372                	.2byte	0x6372
  64:	6172732f          	.4byte	0x6172732f
  68:	2d69                	jal	702 <offset+0x5fe>
  6a:	3130                	.2byte	0x3130
  6c:	532e                	lw	t1,232(sp)
  6e:	2f00                	.2byte	0x2f00
  70:	6f68                	.2byte	0x6f68
  72:	656d                	lui	a0,0x1b
  74:	726f662f          	.4byte	0x726f662f
  78:	442f6563          	bltu	t5,sp,4c2 <offset+0x3be>
  7c:	7365                	lui	t1,0xffff9
  7e:	706f746b          	.4byte	0x706f746b
  82:	726f772f          	.4byte	0x726f772f
  86:	6f632f6b          	.4byte	0x6f632f6b
  8a:	706d                	c.lui	zero,0xffffb
  8c:	696c                	.2byte	0x696c
  8e:	6e61                	lui	t3,0x18
  90:	745f6563          	bltu	t5,t0,7da <offset+0x6d6>
  94:	7365                	lui	t1,0xffff9
  96:	6974                	.2byte	0x6974
  98:	676e                	.2byte	0x676e
  9a:	72756f2f          	.4byte	0x72756f2f
  9e:	725f 7369 7663      	.byte	0x5f, 0x72, 0x69, 0x73, 0x63, 0x76
  a4:	726f772f          	.4byte	0x726f772f
  a8:	69722f6b          	.4byte	0x69722f6b
  ac:	666f6373          	.4byte	0x666f6373
  b0:	775f 726f 2f6b      	.byte	0x5f, 0x77, 0x6f, 0x72, 0x6b, 0x2f
  b6:	2f49                	jal	848 <offset+0x744>
  b8:	2f637273          	.4byte	0x2f637273
  bc:	69617273          	.4byte	0x69617273
  c0:	302d                	jal	fffff8ea <imm12+0xfffffe1a>
  c2:	2e31                	jal	3de <offset+0x2da>
  c4:	75642f53          	.4byte	0x75642f53
  c8:	0074                	add	a3,sp,12
  ca:	20554e47          	.4byte	0x20554e47
  ce:	5341                	li	t1,-16
  d0:	3220                	.2byte	0x3220
  d2:	342e                	.2byte	0x342e
  d4:	2e30                	.2byte	0x2e30
  d6:	0030                	add	a2,sp,8
